   1               		.file	"rgblight.c"
   2               	__SP_H__ = 0x3e
   3               	__SP_L__ = 0x3d
   4               	__SREG__ = 0x3f
   5               	__tmp_reg__ = 0
   6               	__zero_reg__ = 1
   7               		.text
   8               	.Ltext0:
   9               		.cfi_sections	.debug_frame
  10               		.section	.text.sethsv,"ax",@progbits
  11               	.global	sethsv
  13               	sethsv:
  14               	.LVL0:
  15               	.LFB7:
  16               		.file 1 "quantum/rgblight.c"
   1:quantum/rgblight.c **** #include <avr/eeprom.h>
   2:quantum/rgblight.c **** #include <avr/interrupt.h>
   3:quantum/rgblight.c **** #include <util/delay.h>
   4:quantum/rgblight.c **** #include "progmem.h"
   5:quantum/rgblight.c **** #include "timer.h"
   6:quantum/rgblight.c **** #include "rgblight.h"
   7:quantum/rgblight.c **** #include "debug.h"
   8:quantum/rgblight.c **** 
   9:quantum/rgblight.c **** // Lightness curve using the CIE 1931 lightness formula
  10:quantum/rgblight.c **** //Generated by the python script provided in http://jared.geek.nz/2013/feb/linear-led-pwm
  11:quantum/rgblight.c **** const uint8_t DIM_CURVE[] PROGMEM = {
  12:quantum/rgblight.c ****     0, 0, 0, 0, 0, 1, 1, 1, 1, 1,
  13:quantum/rgblight.c ****     1, 1, 1, 1, 2, 2, 2, 2, 2, 2,
  14:quantum/rgblight.c ****     2, 2, 2, 3, 3, 3, 3, 3, 3, 3,
  15:quantum/rgblight.c ****     3, 4, 4, 4, 4, 4, 4, 5, 5, 5,
  16:quantum/rgblight.c ****     5, 5, 6, 6, 6, 6, 6, 7, 7, 7,
  17:quantum/rgblight.c ****     7, 8, 8, 8, 8, 9, 9, 9, 10, 10,
  18:quantum/rgblight.c ****     10, 10, 11, 11, 11, 12, 12, 12, 13, 13,
  19:quantum/rgblight.c ****     13, 14, 14, 15, 15, 15, 16, 16, 17, 17,
  20:quantum/rgblight.c ****     17, 18, 18, 19, 19, 20, 20, 21, 21, 22,
  21:quantum/rgblight.c ****     22, 23, 23, 24, 24, 25, 25, 26, 26, 27,
  22:quantum/rgblight.c ****     28, 28, 29, 29, 30, 31, 31, 32, 32, 33,
  23:quantum/rgblight.c ****     34, 34, 35, 36, 37, 37, 38, 39, 39, 40,
  24:quantum/rgblight.c ****     41, 42, 43, 43, 44, 45, 46, 47, 47, 48,
  25:quantum/rgblight.c ****     49, 50, 51, 52, 53, 54, 54, 55, 56, 57,
  26:quantum/rgblight.c ****     58, 59, 60, 61, 62, 63, 64, 65, 66, 67,
  27:quantum/rgblight.c ****     68, 70, 71, 72, 73, 74, 75, 76, 77, 79,
  28:quantum/rgblight.c ****     80, 81, 82, 83, 85, 86, 87, 88, 90, 91,
  29:quantum/rgblight.c ****     92, 94, 95, 96, 98, 99, 100, 102, 103, 105,
  30:quantum/rgblight.c ****     106, 108, 109, 110, 112, 113, 115, 116, 118, 120,
  31:quantum/rgblight.c ****     121, 123, 124, 126, 128, 129, 131, 132, 134, 136,
  32:quantum/rgblight.c ****     138, 139, 141, 143, 145, 146, 148, 150, 152, 154,
  33:quantum/rgblight.c ****     155, 157, 159, 161, 163, 165, 167, 169, 171, 173,
  34:quantum/rgblight.c ****     175, 177, 179, 181, 183, 185, 187, 189, 191, 193,
  35:quantum/rgblight.c ****     196, 198, 200, 202, 204, 207, 209, 211, 214, 216,
  36:quantum/rgblight.c ****     218, 220, 223, 225, 228, 230, 232, 235, 237, 240,
  37:quantum/rgblight.c ****     242, 245, 247, 250, 252, 255,
  38:quantum/rgblight.c ****     };
  39:quantum/rgblight.c **** 
  40:quantum/rgblight.c **** const uint8_t RGBLED_BREATHING_TABLE[] PROGMEM = {
  41:quantum/rgblight.c ****   0, 0, 0, 0, 1, 1, 1, 2, 2, 3, 4, 5, 5, 6, 7, 9,
  42:quantum/rgblight.c ****   10, 11, 12, 14, 15, 17, 18, 20, 21, 23, 25, 27, 29, 31, 33, 35,
  43:quantum/rgblight.c ****   37, 40, 42, 44, 47, 49, 52, 54, 57, 59, 62, 65, 67, 70, 73, 76,
  44:quantum/rgblight.c ****   79, 82, 85, 88, 90, 93, 97, 100, 103, 106, 109, 112, 115, 118, 121, 124,
  45:quantum/rgblight.c ****   127, 131, 134, 137, 140, 143, 146, 149, 152, 155, 158, 162, 165, 167, 170, 173,
  46:quantum/rgblight.c ****   176, 179, 182, 185, 188, 190, 193, 196, 198, 201, 203, 206, 208, 211, 213, 215,
  47:quantum/rgblight.c ****   218, 220, 222, 224, 226, 228, 230, 232, 234, 235, 237, 238, 240, 241, 243, 244,
  48:quantum/rgblight.c ****   245, 246, 248, 249, 250, 250, 251, 252, 253, 253, 254, 254, 254, 255, 255, 255,
  49:quantum/rgblight.c ****   255, 255, 255, 255, 254, 254, 254, 253, 253, 252, 251, 250, 250, 249, 248, 246,
  50:quantum/rgblight.c ****   245, 244, 243, 241, 240, 238, 237, 235, 234, 232, 230, 228, 226, 224, 222, 220,
  51:quantum/rgblight.c ****   218, 215, 213, 211, 208, 206, 203, 201, 198, 196, 193, 190, 188, 185, 182, 179,
  52:quantum/rgblight.c ****   176, 173, 170, 167, 165, 162, 158, 155, 152, 149, 146, 143, 140, 137, 134, 131,
  53:quantum/rgblight.c ****   128, 124, 121, 118, 115, 112, 109, 106, 103, 100, 97, 93, 90, 88, 85, 82,
  54:quantum/rgblight.c ****   79, 76, 73, 70, 67, 65, 62, 59, 57, 54, 52, 49, 47, 44, 42, 40,
  55:quantum/rgblight.c ****   37, 35, 33, 31, 29, 27, 25, 23, 21, 20, 18, 17, 15, 14, 12, 11,
  56:quantum/rgblight.c ****   10, 9, 7, 6, 5, 5, 4, 3, 2, 2, 1, 1, 1, 0, 0, 0
  57:quantum/rgblight.c **** };
  58:quantum/rgblight.c **** 
  59:quantum/rgblight.c **** __attribute__ ((weak))
  60:quantum/rgblight.c **** const uint8_t RGBLED_BREATHING_INTERVALS[] PROGMEM = {30, 20, 10, 5};
  61:quantum/rgblight.c **** __attribute__ ((weak))
  62:quantum/rgblight.c **** const uint8_t RGBLED_RAINBOW_MOOD_INTERVALS[] PROGMEM = {120, 60, 30};
  63:quantum/rgblight.c **** __attribute__ ((weak))
  64:quantum/rgblight.c **** const uint8_t RGBLED_RAINBOW_SWIRL_INTERVALS[] PROGMEM = {100, 50, 20};
  65:quantum/rgblight.c **** __attribute__ ((weak))
  66:quantum/rgblight.c **** const uint8_t RGBLED_SNAKE_INTERVALS[] PROGMEM = {100, 50, 20};
  67:quantum/rgblight.c **** __attribute__ ((weak))
  68:quantum/rgblight.c **** const uint8_t RGBLED_KNIGHT_INTERVALS[] PROGMEM = {100, 50, 20};
  69:quantum/rgblight.c **** 
  70:quantum/rgblight.c **** rgblight_config_t rgblight_config;
  71:quantum/rgblight.c **** rgblight_config_t inmem_config;
  72:quantum/rgblight.c **** 
  73:quantum/rgblight.c **** LED_TYPE led[RGBLED_NUM];
  74:quantum/rgblight.c **** uint8_t rgblight_inited = 0;
  75:quantum/rgblight.c **** bool rgblight_timer_enabled = false;
  76:quantum/rgblight.c **** 
  77:quantum/rgblight.c **** void sethsv(uint16_t hue, uint8_t sat, uint8_t val, LED_TYPE *led1) {
  17               		.loc 1 77 69 view -0
  18               		.cfi_startproc
  19               		.loc 1 77 69 is_stmt 0 view .LVU1
  20 0000 CF92      		push r12
  21               	.LCFI0:
  22               		.cfi_def_cfa_offset 3
  23               		.cfi_offset 12, -2
  24 0002 DF92      		push r13
  25               	.LCFI1:
  26               		.cfi_def_cfa_offset 4
  27               		.cfi_offset 13, -3
  28 0004 EF92      		push r14
  29               	.LCFI2:
  30               		.cfi_def_cfa_offset 5
  31               		.cfi_offset 14, -4
  32 0006 FF92      		push r15
  33               	.LCFI3:
  34               		.cfi_def_cfa_offset 6
  35               		.cfi_offset 15, -5
  36 0008 0F93      		push r16
  37               	.LCFI4:
  38               		.cfi_def_cfa_offset 7
  39               		.cfi_offset 16, -6
  40 000a 1F93      		push r17
  41               	.LCFI5:
  42               		.cfi_def_cfa_offset 8
  43               		.cfi_offset 17, -7
  44 000c CF93      		push r28
  45               	.LCFI6:
  46               		.cfi_def_cfa_offset 9
  47               		.cfi_offset 28, -8
  48 000e DF93      		push r29
  49               	.LCFI7:
  50               		.cfi_def_cfa_offset 10
  51               		.cfi_offset 29, -9
  52               	/* prologue: function */
  53               	/* frame size = 0 */
  54               	/* stack size = 8 */
  55               	.L__stack_usage = 8
  56 0010 E901      		movw r28,r18
  78:quantum/rgblight.c ****   uint8_t r = 0, g = 0, b = 0, base, color;
  57               		.loc 1 78 3 is_stmt 1 view .LVU2
  58               	.LVL1:
  79:quantum/rgblight.c **** 
  80:quantum/rgblight.c ****   if (sat == 0) { // Acromatic color (gray). Hue doesn't mind.
  59               		.loc 1 80 3 view .LVU3
  60               		.loc 1 80 6 is_stmt 0 view .LVU4
  61 0012 6623      		tst r22
  62 0014 01F4      		brne .+2
  63 0016 00C0      		rjmp .L10
  64 0018 E42E      		mov r14,r20
  65 001a F12C      		mov r15,__zero_reg__
  81:quantum/rgblight.c ****     r = val;
  82:quantum/rgblight.c ****     g = val;
  83:quantum/rgblight.c ****     b = val;
  84:quantum/rgblight.c ****   } else {
  85:quantum/rgblight.c ****     base = ((255 - sat) * val) >> 8;
  66               		.loc 1 85 5 is_stmt 1 view .LVU5
  67               		.loc 1 85 18 is_stmt 0 view .LVU6
  68 001c EFEF      		ldi r30,lo8(-1)
  69 001e F0E0      		ldi r31,0
  70 0020 E61B      		sub r30,r22
  71 0022 F109      		sbc r31,__zero_reg__
  72               		.loc 1 85 25 view .LVU7
  73 0024 EE9D      		mul r30,r14
  74 0026 8001      		movw r16,r0
  75 0028 EF9D      		mul r30,r15
  76 002a 100D      		add r17,r0
  77 002c FE9D      		mul r31,r14
  78 002e 100D      		add r17,r0
  79 0030 1124      		clr r1
  80               		.loc 1 85 10 view .LVU8
  81 0032 212F      		mov r18,r17
  82               	.LVL2:
  86:quantum/rgblight.c ****     color = (val - base) * (hue % 60) / 60;
  83               		.loc 1 86 5 is_stmt 1 view .LVU9
  84               		.loc 1 86 18 is_stmt 0 view .LVU10
  85 0034 E12F      		mov r30,r17
  86 0036 FF27      		clr r31
  87 0038 EE1A      		sub r14,r30
  88 003a FF0A      		sbc r15,r31
  89               		.loc 1 86 33 view .LVU11
  90 003c 5CE3      		ldi r21,lo8(60)
  91 003e C52E      		mov r12,r21
  92 0040 D12C      		mov r13,__zero_reg__
  93 0042 B601      		movw r22,r12
  94               	.LVL3:
  95               		.loc 1 86 33 view .LVU12
  96 0044 0E94 0000 		call __udivmodhi4
  97               	.LVL4:
  98               		.loc 1 86 33 view .LVU13
  99 0048 FB01      		movw r30,r22
 100 004a BC01      		movw r22,r24
 101               		.loc 1 86 26 view .LVU14
 102 004c E69E      		mul r14,r22
 103 004e C001      		movw r24,r0
 104 0050 E79E      		mul r14,r23
 105 0052 900D      		add r25,r0
 106 0054 F69E      		mul r15,r22
 107 0056 900D      		add r25,r0
 108 0058 1124      		clr r1
 109               		.loc 1 86 39 view .LVU15
 110 005a B601      		movw r22,r12
 111 005c 0E94 0000 		call __udivmodhi4
 112               	.LVL5:
  87:quantum/rgblight.c **** 
  88:quantum/rgblight.c ****     switch (hue / 60) {
 113               		.loc 1 88 5 is_stmt 1 view .LVU16
 114 0060 E230      		cpi r30,2
 115 0062 F105      		cpc r31,__zero_reg__
 116 0064 01F0      		breq .L3
 117 0066 00F4      		brsh .L4
 118               	.LVL6:
  89:quantum/rgblight.c ****       case 0:
  90:quantum/rgblight.c ****         r = val;
  91:quantum/rgblight.c ****         g = base + color;
  92:quantum/rgblight.c ****         b = base;
 119               		.loc 1 92 9 view .LVU17
  93:quantum/rgblight.c ****         break;
 120               		.loc 1 93 9 view .LVU18
  92:quantum/rgblight.c ****         break;
 121               		.loc 1 92 11 is_stmt 0 view .LVU19
 122 0068 812F      		mov r24,r17
  91:quantum/rgblight.c ****         b = base;
 123               		.loc 1 91 11 view .LVU20
 124 006a 262F      		mov r18,r22
 125 006c 210F      		add r18,r17
  88:quantum/rgblight.c ****       case 0:
 126               		.loc 1 88 5 view .LVU21
 127 006e 3097      		sbiw r30,0
 128 0070 01F0      		breq .L2
 129               	.LVL7:
  94:quantum/rgblight.c ****       case 1:
  95:quantum/rgblight.c ****         r = val - color;
  96:quantum/rgblight.c ****         g = val;
 130               		.loc 1 96 9 is_stmt 1 view .LVU22
  97:quantum/rgblight.c ****         b = base;
 131               		.loc 1 97 9 view .LVU23
  98:quantum/rgblight.c ****         break;
 132               		.loc 1 98 9 view .LVU24
  96:quantum/rgblight.c ****         b = base;
 133               		.loc 1 96 11 is_stmt 0 view .LVU25
 134 0072 242F      		mov r18,r20
  95:quantum/rgblight.c ****         g = val;
 135               		.loc 1 95 11 view .LVU26
 136 0074 461B      		sub r20,r22
 137               	.LVL8:
  88:quantum/rgblight.c ****       case 0:
 138               		.loc 1 88 5 view .LVU27
 139 0076 3197      		sbiw r30,1
 140 0078 01F0      		breq .L2
 141               	.LVL9:
 142               	.L11:
  78:quantum/rgblight.c **** 
 143               		.loc 1 78 25 view .LVU28
 144 007a 80E0      		ldi r24,0
  78:quantum/rgblight.c **** 
 145               		.loc 1 78 18 view .LVU29
 146 007c 20E0      		ldi r18,0
  78:quantum/rgblight.c **** 
 147               		.loc 1 78 11 view .LVU30
 148 007e 40E0      		ldi r20,0
 149 0080 00C0      		rjmp .L2
 150               	.LVL10:
 151               	.L4:
  88:quantum/rgblight.c ****       case 0:
 152               		.loc 1 88 5 view .LVU31
 153 0082 E430      		cpi r30,4
 154 0084 F105      		cpc r31,__zero_reg__
 155 0086 01F0      		breq .L7
 156 0088 00F0      		brlo .L8
  99:quantum/rgblight.c ****       case 2:
 100:quantum/rgblight.c ****         r = base;
 101:quantum/rgblight.c ****         g = val;
 102:quantum/rgblight.c ****         b = base + color;
 103:quantum/rgblight.c ****         break;
 104:quantum/rgblight.c ****       case 3:
 105:quantum/rgblight.c ****         r = base;
 106:quantum/rgblight.c ****         g = val - color;
 107:quantum/rgblight.c ****         b = val;
 108:quantum/rgblight.c ****         break;
 109:quantum/rgblight.c ****       case 4:
 110:quantum/rgblight.c ****         r = base + color;
 111:quantum/rgblight.c ****         g = base;
 112:quantum/rgblight.c ****         b = val;
 113:quantum/rgblight.c ****         break;
 114:quantum/rgblight.c ****       case 5:
 115:quantum/rgblight.c ****         r = val;
 116:quantum/rgblight.c ****         g = base;
 117:quantum/rgblight.c ****         b = val - color;
 157               		.loc 1 117 11 view .LVU32
 158 008a 842F      		mov r24,r20
 159 008c 861B      		sub r24,r22
  88:quantum/rgblight.c ****       case 0:
 160               		.loc 1 88 5 view .LVU33
 161 008e 3597      		sbiw r30,5
 162 0090 01F4      		brne .L11
 163               	.LVL11:
 164               	.L2:
 118:quantum/rgblight.c ****         break;
 119:quantum/rgblight.c ****     }
 120:quantum/rgblight.c ****   }
 121:quantum/rgblight.c ****   r = pgm_read_byte(&DIM_CURVE[r]);
 165               		.loc 1 121 3 is_stmt 1 view .LVU34
 166               	.LBB9:
 167               		.loc 1 121 7 view .LVU35
 168               		.loc 1 121 7 view .LVU36
 169               		.loc 1 121 7 view .LVU37
 170 0092 E42F      		mov r30,r20
 171 0094 F0E0      		ldi r31,0
 172 0096 E050      		subi r30,lo8(-(DIM_CURVE))
 173 0098 F040      		sbci r31,hi8(-(DIM_CURVE))
 174               	/* #APP */
 175               	 ;  121 "quantum/rgblight.c" 1
 176 009a 4491      		lpm r20, Z
 177               		
 178               	 ;  0 "" 2
 179               	.LVL12:
 180               		.loc 1 121 7 view .LVU38
 181               		.loc 1 121 7 is_stmt 0 view .LVU39
 182               	/* #NOAPP */
 183               	.LBE9:
 122:quantum/rgblight.c ****   g = pgm_read_byte(&DIM_CURVE[g]);
 184               		.loc 1 122 3 is_stmt 1 view .LVU40
 185               	.LBB10:
 186               		.loc 1 122 7 view .LVU41
 187               		.loc 1 122 7 view .LVU42
 188               		.loc 1 122 7 view .LVU43
 189 009c E22F      		mov r30,r18
 190 009e F0E0      		ldi r31,0
 191 00a0 E050      		subi r30,lo8(-(DIM_CURVE))
 192 00a2 F040      		sbci r31,hi8(-(DIM_CURVE))
 193               	/* #APP */
 194               	 ;  122 "quantum/rgblight.c" 1
 195 00a4 9491      		lpm r25, Z
 196               		
 197               	 ;  0 "" 2
 198               	.LVL13:
 199               		.loc 1 122 7 view .LVU44
 200               		.loc 1 122 7 is_stmt 0 view .LVU45
 201               	/* #NOAPP */
 202               	.LBE10:
 123:quantum/rgblight.c ****   b = pgm_read_byte(&DIM_CURVE[b]);
 203               		.loc 1 123 3 is_stmt 1 view .LVU46
 204               	.LBB11:
 205               		.loc 1 123 7 view .LVU47
 206               		.loc 1 123 7 view .LVU48
 207               		.loc 1 123 7 view .LVU49
 208 00a6 E82F      		mov r30,r24
 209 00a8 F0E0      		ldi r31,0
 210 00aa E050      		subi r30,lo8(-(DIM_CURVE))
 211 00ac F040      		sbci r31,hi8(-(DIM_CURVE))
 212               	/* #APP */
 213               	 ;  123 "quantum/rgblight.c" 1
 214 00ae E491      		lpm r30, Z
 215               		
 216               	 ;  0 "" 2
 217               	.LVL14:
 218               		.loc 1 123 7 view .LVU50
 219               		.loc 1 123 7 is_stmt 0 view .LVU51
 220               	/* #NOAPP */
 221               	.LBE11:
 124:quantum/rgblight.c **** 
 125:quantum/rgblight.c ****   setrgb(r, g, b, led1);
 222               		.loc 1 125 3 is_stmt 1 view .LVU52
 223               	.LBB12:
 224               	.LBI12:
 126:quantum/rgblight.c **** }
 127:quantum/rgblight.c **** 
 128:quantum/rgblight.c **** void setrgb(uint8_t r, uint8_t g, uint8_t b, LED_TYPE *led1) {
 225               		.loc 1 128 6 view .LVU53
 226               	.LBB13:
 129:quantum/rgblight.c ****   (*led1).r = r;
 227               		.loc 1 129 3 view .LVU54
 228               		.loc 1 129 13 is_stmt 0 view .LVU55
 229 00b0 4983      		std Y+1,r20
 130:quantum/rgblight.c ****   (*led1).g = g;
 230               		.loc 1 130 3 is_stmt 1 view .LVU56
 231               		.loc 1 130 13 is_stmt 0 view .LVU57
 232 00b2 9883      		st Y,r25
 131:quantum/rgblight.c ****   (*led1).b = b;
 233               		.loc 1 131 3 is_stmt 1 view .LVU58
 234               		.loc 1 131 13 is_stmt 0 view .LVU59
 235 00b4 EA83      		std Y+2,r30
 236               	.LVL15:
 237               	/* epilogue start */
 238               		.loc 1 131 13 view .LVU60
 239               	.LBE13:
 240               	.LBE12:
 126:quantum/rgblight.c **** 
 241               		.loc 1 126 1 view .LVU61
 242 00b6 DF91      		pop r29
 243 00b8 CF91      		pop r28
 244               	.LVL16:
 126:quantum/rgblight.c **** 
 245               		.loc 1 126 1 view .LVU62
 246 00ba 1F91      		pop r17
 247 00bc 0F91      		pop r16
 248 00be FF90      		pop r15
 249 00c0 EF90      		pop r14
 250 00c2 DF90      		pop r13
 251 00c4 CF90      		pop r12
 252 00c6 0895      		ret
 253               	.LVL17:
 254               	.L3:
 100:quantum/rgblight.c ****         g = val;
 255               		.loc 1 100 9 is_stmt 1 view .LVU63
 101:quantum/rgblight.c ****         b = base + color;
 256               		.loc 1 101 9 view .LVU64
 102:quantum/rgblight.c ****         break;
 257               		.loc 1 102 9 view .LVU65
 102:quantum/rgblight.c ****         break;
 258               		.loc 1 102 11 is_stmt 0 view .LVU66
 259 00c8 862F      		mov r24,r22
 260 00ca 810F      		add r24,r17
 261               	.LVL18:
 103:quantum/rgblight.c ****       case 3:
 262               		.loc 1 103 9 is_stmt 1 view .LVU67
 263 00cc E42F      		mov r30,r20
 264               	.LVL19:
 265               	.L12:
 105:quantum/rgblight.c ****         g = val - color;
 266               		.loc 1 105 11 is_stmt 0 view .LVU68
 267 00ce 412F      		mov r20,r17
 268               	.LVL20:
 106:quantum/rgblight.c ****         b = val;
 269               		.loc 1 106 11 view .LVU69
 270 00d0 2E2F      		mov r18,r30
 108:quantum/rgblight.c ****       case 4:
 271               		.loc 1 108 9 view .LVU70
 272 00d2 00C0      		rjmp .L2
 273               	.LVL21:
 274               	.L8:
 105:quantum/rgblight.c ****         g = val - color;
 275               		.loc 1 105 9 is_stmt 1 view .LVU71
 106:quantum/rgblight.c ****         b = val;
 276               		.loc 1 106 9 view .LVU72
 106:quantum/rgblight.c ****         b = val;
 277               		.loc 1 106 11 is_stmt 0 view .LVU73
 278 00d4 E42F      		mov r30,r20
 279 00d6 E61B      		sub r30,r22
 280               	.LVL22:
 107:quantum/rgblight.c ****         break;
 281               		.loc 1 107 9 is_stmt 1 view .LVU74
 108:quantum/rgblight.c ****       case 4:
 282               		.loc 1 108 9 view .LVU75
 107:quantum/rgblight.c ****         break;
 283               		.loc 1 107 11 is_stmt 0 view .LVU76
 284 00d8 842F      		mov r24,r20
 285 00da 00C0      		rjmp .L12
 286               	.LVL23:
 287               	.L7:
 110:quantum/rgblight.c ****         g = base;
 288               		.loc 1 110 9 is_stmt 1 view .LVU77
 111:quantum/rgblight.c ****         b = val;
 289               		.loc 1 111 9 view .LVU78
 112:quantum/rgblight.c ****         break;
 290               		.loc 1 112 9 view .LVU79
 113:quantum/rgblight.c ****       case 5:
 291               		.loc 1 113 9 view .LVU80
 112:quantum/rgblight.c ****         break;
 292               		.loc 1 112 11 is_stmt 0 view .LVU81
 293 00dc 842F      		mov r24,r20
 110:quantum/rgblight.c ****         g = base;
 294               		.loc 1 110 11 view .LVU82
 295 00de 462F      		mov r20,r22
 296               	.LVL24:
 110:quantum/rgblight.c ****         g = base;
 297               		.loc 1 110 11 view .LVU83
 298 00e0 410F      		add r20,r17
 113:quantum/rgblight.c ****       case 5:
 299               		.loc 1 113 9 view .LVU84
 300 00e2 00C0      		rjmp .L2
 301               	.LVL25:
 302               	.L10:
  83:quantum/rgblight.c ****   } else {
 303               		.loc 1 83 7 view .LVU85
 304 00e4 842F      		mov r24,r20
 305               	.LVL26:
  82:quantum/rgblight.c ****     b = val;
 306               		.loc 1 82 7 view .LVU86
 307 00e6 242F      		mov r18,r20
 308               	.LVL27:
  82:quantum/rgblight.c ****     b = val;
 309               		.loc 1 82 7 view .LVU87
 310 00e8 00C0      		rjmp .L2
 311               		.cfi_endproc
 312               	.LFE7:
 314               		.section	.text.setrgb,"ax",@progbits
 315               	.global	setrgb
 317               	setrgb:
 318               	.LVL28:
 319               	.LFB8:
 128:quantum/rgblight.c ****   (*led1).r = r;
 320               		.loc 1 128 62 is_stmt 1 view -0
 321               		.cfi_startproc
 322               	/* prologue: function */
 323               	/* frame size = 0 */
 324               	/* stack size = 0 */
 325               	.L__stack_usage = 0
 128:quantum/rgblight.c ****   (*led1).r = r;
 326               		.loc 1 128 62 is_stmt 0 view .LVU89
 327 0000 F901      		movw r30,r18
 129:quantum/rgblight.c ****   (*led1).g = g;
 328               		.loc 1 129 3 is_stmt 1 view .LVU90
 129:quantum/rgblight.c ****   (*led1).g = g;
 329               		.loc 1 129 13 is_stmt 0 view .LVU91
 330 0002 8183      		std Z+1,r24
 130:quantum/rgblight.c ****   (*led1).b = b;
 331               		.loc 1 130 3 is_stmt 1 view .LVU92
 130:quantum/rgblight.c ****   (*led1).b = b;
 332               		.loc 1 130 13 is_stmt 0 view .LVU93
 333 0004 6083      		st Z,r22
 334               		.loc 1 131 3 is_stmt 1 view .LVU94
 335               		.loc 1 131 13 is_stmt 0 view .LVU95
 336 0006 4283      		std Z+2,r20
 337               	/* epilogue start */
 132:quantum/rgblight.c **** }
 338               		.loc 1 132 1 view .LVU96
 339 0008 0895      		ret
 340               		.cfi_endproc
 341               	.LFE8:
 343               		.section	.text.eeconfig_read_rgblight,"ax",@progbits
 344               	.global	eeconfig_read_rgblight
 346               	eeconfig_read_rgblight:
 347               	.LFB9:
 133:quantum/rgblight.c **** 
 134:quantum/rgblight.c **** 
 135:quantum/rgblight.c **** uint32_t eeconfig_read_rgblight(void) {
 348               		.loc 1 135 39 is_stmt 1 view -0
 349               		.cfi_startproc
 350               	/* prologue: function */
 351               	/* frame size = 0 */
 352               	/* stack size = 0 */
 353               	.L__stack_usage = 0
 136:quantum/rgblight.c ****   return eeprom_read_dword(EECONFIG_RGBLIGHT);
 354               		.loc 1 136 3 view .LVU98
 355               		.loc 1 136 10 is_stmt 0 view .LVU99
 356 0000 88E0      		ldi r24,lo8(8)
 357 0002 90E0      		ldi r25,0
 358 0004 0C94 0000 		jmp eeprom_read_dword
 359               	.LVL29:
 360               		.cfi_endproc
 361               	.LFE9:
 363               		.section	.text.eeconfig_update_rgblight,"ax",@progbits
 364               	.global	eeconfig_update_rgblight
 366               	eeconfig_update_rgblight:
 367               	.LVL30:
 368               	.LFB10:
 137:quantum/rgblight.c **** }
 138:quantum/rgblight.c **** void eeconfig_update_rgblight(uint32_t val) {
 369               		.loc 1 138 45 is_stmt 1 view -0
 370               		.cfi_startproc
 371               	/* prologue: function */
 372               	/* frame size = 0 */
 373               	/* stack size = 0 */
 374               	.L__stack_usage = 0
 375               		.loc 1 138 45 is_stmt 0 view .LVU101
 376 0000 AB01      		movw r20,r22
 377 0002 BC01      		movw r22,r24
 378               	.LVL31:
 139:quantum/rgblight.c ****   eeprom_update_dword(EECONFIG_RGBLIGHT, val);
 379               		.loc 1 139 3 is_stmt 1 view .LVU102
 380 0004 88E0      		ldi r24,lo8(8)
 381 0006 90E0      		ldi r25,0
 382 0008 0C94 0000 		jmp eeprom_update_dword
 383               	.LVL32:
 384               		.cfi_endproc
 385               	.LFE10:
 387               		.section	.text.eeconfig_update_rgblight_default,"ax",@progbits
 388               	.global	eeconfig_update_rgblight_default
 390               	eeconfig_update_rgblight_default:
 391               	.LFB11:
 140:quantum/rgblight.c **** }
 141:quantum/rgblight.c **** void eeconfig_update_rgblight_default(void) {
 392               		.loc 1 141 45 view -0
 393               		.cfi_startproc
 394               	/* prologue: function */
 395               	/* frame size = 0 */
 396               	/* stack size = 0 */
 397               	.L__stack_usage = 0
 142:quantum/rgblight.c ****   dprintf("eeconfig_update_rgblight_default\n");
 398               		.loc 1 142 48 view .LVU104
 143:quantum/rgblight.c ****   rgblight_config.enable = 1;
 399               		.loc 1 143 3 view .LVU105
 144:quantum/rgblight.c ****   rgblight_config.mode = 1;
 400               		.loc 1 144 3 view .LVU106
 145:quantum/rgblight.c ****   rgblight_config.hue = 0;
 401               		.loc 1 145 3 view .LVU107
 146:quantum/rgblight.c ****   rgblight_config.sat = 255;
 402               		.loc 1 146 3 view .LVU108
 147:quantum/rgblight.c ****   rgblight_config.val = 255;
 403               		.loc 1 147 3 view .LVU109
 143:quantum/rgblight.c ****   rgblight_config.mode = 1;
 404               		.loc 1 143 26 is_stmt 0 view .LVU110
 405 0000 E0E0      		ldi r30,lo8(rgblight_config)
 406 0002 F0E0      		ldi r31,hi8(rgblight_config)
 407 0004 83E0      		ldi r24,lo8(3)
 408 0006 8083      		st Z,r24
 145:quantum/rgblight.c ****   rgblight_config.sat = 255;
 409               		.loc 1 145 23 view .LVU111
 410 0008 1182      		std Z+1,__zero_reg__
 146:quantum/rgblight.c ****   rgblight_config.val = 255;
 411               		.loc 1 146 23 view .LVU112
 412 000a 8FEF      		ldi r24,lo8(-1)
 413 000c 8283      		std Z+2,r24
 414               		.loc 1 147 23 view .LVU113
 415 000e 8383      		std Z+3,r24
 148:quantum/rgblight.c ****   eeconfig_update_rgblight(rgblight_config.raw);
 416               		.loc 1 148 3 is_stmt 1 view .LVU114
 417 0010 6091 0000 		lds r22,rgblight_config
 418 0014 7091 0000 		lds r23,rgblight_config+1
 419 0018 8091 0000 		lds r24,rgblight_config+2
 420 001c 9091 0000 		lds r25,rgblight_config+3
 421 0020 0C94 0000 		jmp eeconfig_update_rgblight
 422               	.LVL33:
 423               		.cfi_endproc
 424               	.LFE11:
 426               		.section	.text.eeconfig_debug_rgblight,"ax",@progbits
 427               	.global	eeconfig_debug_rgblight
 429               	eeconfig_debug_rgblight:
 430               	.LFB12:
 149:quantum/rgblight.c **** }
 150:quantum/rgblight.c **** void eeconfig_debug_rgblight(void) {
 431               		.loc 1 150 36 view -0
 432               		.cfi_startproc
 433               	/* prologue: function */
 434               	/* frame size = 0 */
 435               	/* stack size = 0 */
 436               	.L__stack_usage = 0
 151:quantum/rgblight.c ****   dprintf("rgblight_config eprom\n");
 437               		.loc 1 151 37 view .LVU116
 152:quantum/rgblight.c ****   dprintf("rgblight_config.enable = %d\n", rgblight_config.enable);
 438               		.loc 1 152 67 view .LVU117
 153:quantum/rgblight.c ****   dprintf("rghlight_config.mode = %d\n", rgblight_config.mode);
 439               		.loc 1 153 63 view .LVU118
 154:quantum/rgblight.c ****   dprintf("rgblight_config.hue = %d\n", rgblight_config.hue);
 440               		.loc 1 154 61 view .LVU119
 155:quantum/rgblight.c ****   dprintf("rgblight_config.sat = %d\n", rgblight_config.sat);
 441               		.loc 1 155 61 view .LVU120
 156:quantum/rgblight.c ****   dprintf("rgblight_config.val = %d\n", rgblight_config.val);
 442               		.loc 1 156 61 view .LVU121
 443               	/* epilogue start */
 157:quantum/rgblight.c **** }
 444               		.loc 1 157 1 is_stmt 0 view .LVU122
 445 0000 0895      		ret
 446               		.cfi_endproc
 447               	.LFE12:
 449               		.section	.text.rgblight_set,"ax",@progbits
 450               		.weak	rgblight_set
 452               	rgblight_set:
 453               	.LFB30:
 158:quantum/rgblight.c **** 
 159:quantum/rgblight.c **** void rgblight_init(void) {
 160:quantum/rgblight.c ****   debug_enable = 1; // Debug ON!
 161:quantum/rgblight.c ****   dprintf("rgblight_init called.\n");
 162:quantum/rgblight.c ****   rgblight_inited = 1;
 163:quantum/rgblight.c ****   dprintf("rgblight_init start!\n");
 164:quantum/rgblight.c ****   if (!eeconfig_is_enabled()) {
 165:quantum/rgblight.c ****     dprintf("rgblight_init eeconfig is not enabled.\n");
 166:quantum/rgblight.c ****     eeconfig_init();
 167:quantum/rgblight.c ****     eeconfig_update_rgblight_default();
 168:quantum/rgblight.c ****   }
 169:quantum/rgblight.c ****   rgblight_config.raw = eeconfig_read_rgblight();
 170:quantum/rgblight.c ****   if (!rgblight_config.mode) {
 171:quantum/rgblight.c ****     dprintf("rgblight_init rgblight_config.mode = 0. Write default values to EEPROM.\n");
 172:quantum/rgblight.c ****     eeconfig_update_rgblight_default();
 173:quantum/rgblight.c ****     rgblight_config.raw = eeconfig_read_rgblight();
 174:quantum/rgblight.c ****   }
 175:quantum/rgblight.c ****   eeconfig_debug_rgblight(); // display current eeprom values
 176:quantum/rgblight.c **** 
 177:quantum/rgblight.c ****   #ifdef RGBLIGHT_ANIMATIONS
 178:quantum/rgblight.c ****     rgblight_timer_init(); // setup the timer
 179:quantum/rgblight.c ****   #endif
 180:quantum/rgblight.c **** 
 181:quantum/rgblight.c ****   if (rgblight_config.enable) {
 182:quantum/rgblight.c ****     rgblight_mode(rgblight_config.mode);
 183:quantum/rgblight.c ****   }
 184:quantum/rgblight.c **** }
 185:quantum/rgblight.c **** 
 186:quantum/rgblight.c **** void rgblight_update_dword(uint32_t dword) {
 187:quantum/rgblight.c ****   rgblight_config.raw = dword;
 188:quantum/rgblight.c ****   eeconfig_update_rgblight(rgblight_config.raw);
 189:quantum/rgblight.c ****   if (rgblight_config.enable)
 190:quantum/rgblight.c ****     rgblight_mode(rgblight_config.mode);
 191:quantum/rgblight.c ****   else {
 192:quantum/rgblight.c ****     #ifdef RGBLIGHT_ANIMATIONS
 193:quantum/rgblight.c ****       rgblight_timer_disable();
 194:quantum/rgblight.c ****     #endif
 195:quantum/rgblight.c ****       rgblight_set();
 196:quantum/rgblight.c ****   }
 197:quantum/rgblight.c **** }
 198:quantum/rgblight.c **** 
 199:quantum/rgblight.c **** void rgblight_increase(void) {
 200:quantum/rgblight.c ****   uint8_t mode = 0;
 201:quantum/rgblight.c ****   if (rgblight_config.mode < RGBLIGHT_MODES) {
 202:quantum/rgblight.c ****     mode = rgblight_config.mode + 1;
 203:quantum/rgblight.c ****   }
 204:quantum/rgblight.c ****   rgblight_mode(mode);
 205:quantum/rgblight.c **** }
 206:quantum/rgblight.c **** void rgblight_decrease(void) {
 207:quantum/rgblight.c ****   uint8_t mode = 0;
 208:quantum/rgblight.c ****   // Mode will never be < 1. If it ever is, eeprom needs to be initialized.
 209:quantum/rgblight.c ****   if (rgblight_config.mode > 1) {
 210:quantum/rgblight.c ****     mode = rgblight_config.mode - 1;
 211:quantum/rgblight.c ****   }
 212:quantum/rgblight.c ****   rgblight_mode(mode);
 213:quantum/rgblight.c **** }
 214:quantum/rgblight.c **** void rgblight_step(void) {
 215:quantum/rgblight.c ****   uint8_t mode = 0;
 216:quantum/rgblight.c ****   mode = rgblight_config.mode + 1;
 217:quantum/rgblight.c ****   if (mode > RGBLIGHT_MODES) {
 218:quantum/rgblight.c ****     mode = 1;
 219:quantum/rgblight.c ****   }
 220:quantum/rgblight.c ****   rgblight_mode(mode);
 221:quantum/rgblight.c **** }
 222:quantum/rgblight.c **** 
 223:quantum/rgblight.c **** void rgblight_mode(uint8_t mode) {
 224:quantum/rgblight.c ****   if (!rgblight_config.enable) {
 225:quantum/rgblight.c ****     return;
 226:quantum/rgblight.c ****   }
 227:quantum/rgblight.c ****   if (mode < 1) {
 228:quantum/rgblight.c ****     rgblight_config.mode = 1;
 229:quantum/rgblight.c ****   } else if (mode > RGBLIGHT_MODES) {
 230:quantum/rgblight.c ****     rgblight_config.mode = RGBLIGHT_MODES;
 231:quantum/rgblight.c ****   } else {
 232:quantum/rgblight.c ****     rgblight_config.mode = mode;
 233:quantum/rgblight.c ****   }
 234:quantum/rgblight.c ****   eeconfig_update_rgblight(rgblight_config.raw);
 235:quantum/rgblight.c ****   xprintf("rgblight mode: %u\n", rgblight_config.mode);
 236:quantum/rgblight.c ****   if (rgblight_config.mode == 1) {
 237:quantum/rgblight.c ****     #ifdef RGBLIGHT_ANIMATIONS
 238:quantum/rgblight.c ****       rgblight_timer_disable();
 239:quantum/rgblight.c ****     #endif
 240:quantum/rgblight.c ****   } else if (rgblight_config.mode >= 2 && rgblight_config.mode <= 23) {
 241:quantum/rgblight.c ****     // MODE 2-5, breathing
 242:quantum/rgblight.c ****     // MODE 6-8, rainbow mood
 243:quantum/rgblight.c ****     // MODE 9-14, rainbow swirl
 244:quantum/rgblight.c ****     // MODE 15-20, snake
 245:quantum/rgblight.c ****     // MODE 21-23, knight
 246:quantum/rgblight.c **** 
 247:quantum/rgblight.c ****     #ifdef RGBLIGHT_ANIMATIONS
 248:quantum/rgblight.c ****       rgblight_timer_enable();
 249:quantum/rgblight.c ****     #endif
 250:quantum/rgblight.c ****   }
 251:quantum/rgblight.c ****   rgblight_sethsv(rgblight_config.hue, rgblight_config.sat, rgblight_config.val);
 252:quantum/rgblight.c **** }
 253:quantum/rgblight.c **** 
 254:quantum/rgblight.c **** void rgblight_toggle(void) {
 255:quantum/rgblight.c ****   rgblight_config.enable ^= 1;
 256:quantum/rgblight.c ****   eeconfig_update_rgblight(rgblight_config.raw);
 257:quantum/rgblight.c ****   xprintf("rgblight toggle: rgblight_config.enable = %u\n", rgblight_config.enable);
 258:quantum/rgblight.c ****   if (rgblight_config.enable) {
 259:quantum/rgblight.c ****     rgblight_mode(rgblight_config.mode);
 260:quantum/rgblight.c ****   } else {
 261:quantum/rgblight.c ****     #ifdef RGBLIGHT_ANIMATIONS
 262:quantum/rgblight.c ****       rgblight_timer_disable();
 263:quantum/rgblight.c ****     #endif
 264:quantum/rgblight.c ****     _delay_ms(50);
 265:quantum/rgblight.c ****     rgblight_set();
 266:quantum/rgblight.c ****   }
 267:quantum/rgblight.c **** }
 268:quantum/rgblight.c **** 
 269:quantum/rgblight.c **** void rgblight_enable(void) {
 270:quantum/rgblight.c ****   rgblight_config.enable = 1;
 271:quantum/rgblight.c ****   eeconfig_update_rgblight(rgblight_config.raw);
 272:quantum/rgblight.c ****   xprintf("rgblight enable: rgblight_config.enable = %u\n", rgblight_config.enable);
 273:quantum/rgblight.c ****   rgblight_mode(rgblight_config.mode);
 274:quantum/rgblight.c **** }
 275:quantum/rgblight.c **** 
 276:quantum/rgblight.c **** 
 277:quantum/rgblight.c **** void rgblight_increase_hue(void) {
 278:quantum/rgblight.c ****   uint16_t hue;
 279:quantum/rgblight.c ****   hue = (rgblight_config.hue+RGBLIGHT_HUE_STEP) % 360;
 280:quantum/rgblight.c ****   rgblight_sethsv(hue, rgblight_config.sat, rgblight_config.val);
 281:quantum/rgblight.c **** }
 282:quantum/rgblight.c **** void rgblight_decrease_hue(void) {
 283:quantum/rgblight.c ****   uint16_t hue;
 284:quantum/rgblight.c ****   if (rgblight_config.hue-RGBLIGHT_HUE_STEP < 0) {
 285:quantum/rgblight.c ****     hue = (rgblight_config.hue + 360 - RGBLIGHT_HUE_STEP) % 360;
 286:quantum/rgblight.c ****   } else {
 287:quantum/rgblight.c ****     hue = (rgblight_config.hue - RGBLIGHT_HUE_STEP) % 360;
 288:quantum/rgblight.c ****   }
 289:quantum/rgblight.c ****   rgblight_sethsv(hue, rgblight_config.sat, rgblight_config.val);
 290:quantum/rgblight.c **** }
 291:quantum/rgblight.c **** void rgblight_increase_sat(void) {
 292:quantum/rgblight.c ****   uint8_t sat;
 293:quantum/rgblight.c ****   if (rgblight_config.sat + RGBLIGHT_SAT_STEP > 255) {
 294:quantum/rgblight.c ****     sat = 255;
 295:quantum/rgblight.c ****   } else {
 296:quantum/rgblight.c ****     sat = rgblight_config.sat + RGBLIGHT_SAT_STEP;
 297:quantum/rgblight.c ****   }
 298:quantum/rgblight.c ****   rgblight_sethsv(rgblight_config.hue, sat, rgblight_config.val);
 299:quantum/rgblight.c **** }
 300:quantum/rgblight.c **** void rgblight_decrease_sat(void) {
 301:quantum/rgblight.c ****   uint8_t sat;
 302:quantum/rgblight.c ****   if (rgblight_config.sat - RGBLIGHT_SAT_STEP < 0) {
 303:quantum/rgblight.c ****     sat = 0;
 304:quantum/rgblight.c ****   } else {
 305:quantum/rgblight.c ****     sat = rgblight_config.sat - RGBLIGHT_SAT_STEP;
 306:quantum/rgblight.c ****   }
 307:quantum/rgblight.c ****   rgblight_sethsv(rgblight_config.hue, sat, rgblight_config.val);
 308:quantum/rgblight.c **** }
 309:quantum/rgblight.c **** void rgblight_increase_val(void) {
 310:quantum/rgblight.c ****   uint8_t val;
 311:quantum/rgblight.c ****   if (rgblight_config.val + RGBLIGHT_VAL_STEP > 255) {
 312:quantum/rgblight.c ****     val = 255;
 313:quantum/rgblight.c ****   } else {
 314:quantum/rgblight.c ****     val = rgblight_config.val + RGBLIGHT_VAL_STEP;
 315:quantum/rgblight.c ****   }
 316:quantum/rgblight.c ****   rgblight_sethsv(rgblight_config.hue, rgblight_config.sat, val);
 317:quantum/rgblight.c **** }
 318:quantum/rgblight.c **** void rgblight_decrease_val(void) {
 319:quantum/rgblight.c ****   uint8_t val;
 320:quantum/rgblight.c ****   if (rgblight_config.val - RGBLIGHT_VAL_STEP < 0) {
 321:quantum/rgblight.c ****     val = 0;
 322:quantum/rgblight.c ****   } else {
 323:quantum/rgblight.c ****     val = rgblight_config.val - RGBLIGHT_VAL_STEP;
 324:quantum/rgblight.c ****   }
 325:quantum/rgblight.c ****   rgblight_sethsv(rgblight_config.hue, rgblight_config.sat, val);
 326:quantum/rgblight.c **** }
 327:quantum/rgblight.c **** 
 328:quantum/rgblight.c **** void rgblight_sethsv_noeeprom(uint16_t hue, uint8_t sat, uint8_t val) {
 329:quantum/rgblight.c ****   inmem_config.raw = rgblight_config.raw;
 330:quantum/rgblight.c ****   if (rgblight_config.enable) {
 331:quantum/rgblight.c ****     LED_TYPE tmp_led;
 332:quantum/rgblight.c ****     sethsv(hue, sat, val, &tmp_led);
 333:quantum/rgblight.c ****     inmem_config.hue = hue;
 334:quantum/rgblight.c ****     inmem_config.sat = sat;
 335:quantum/rgblight.c ****     inmem_config.val = val;
 336:quantum/rgblight.c ****     // dprintf("rgblight set hue [MEMORY]: %u,%u,%u\n", inmem_config.hue, inmem_config.sat, inmem_c
 337:quantum/rgblight.c ****     rgblight_setrgb(tmp_led.r, tmp_led.g, tmp_led.b);
 338:quantum/rgblight.c ****   }
 339:quantum/rgblight.c **** }
 340:quantum/rgblight.c **** void rgblight_sethsv(uint16_t hue, uint8_t sat, uint8_t val) {
 341:quantum/rgblight.c ****   if (rgblight_config.enable) {
 342:quantum/rgblight.c ****     if (rgblight_config.mode == 1) {
 343:quantum/rgblight.c ****       // same static color
 344:quantum/rgblight.c ****       rgblight_sethsv_noeeprom(hue, sat, val);
 345:quantum/rgblight.c ****     } else {
 346:quantum/rgblight.c ****       // all LEDs in same color
 347:quantum/rgblight.c ****       if (rgblight_config.mode >= 2 && rgblight_config.mode <= 5) {
 348:quantum/rgblight.c ****         // breathing mode, ignore the change of val, use in memory value instead
 349:quantum/rgblight.c ****         val = rgblight_config.val;
 350:quantum/rgblight.c ****       } else if (rgblight_config.mode >= 6 && rgblight_config.mode <= 14) {
 351:quantum/rgblight.c ****         // rainbow mood and rainbow swirl, ignore the change of hue
 352:quantum/rgblight.c ****         hue = rgblight_config.hue;
 353:quantum/rgblight.c ****       }
 354:quantum/rgblight.c ****     }
 355:quantum/rgblight.c ****     rgblight_config.hue = hue;
 356:quantum/rgblight.c ****     rgblight_config.sat = sat;
 357:quantum/rgblight.c ****     rgblight_config.val = val;
 358:quantum/rgblight.c ****     eeconfig_update_rgblight(rgblight_config.raw);
 359:quantum/rgblight.c ****     xprintf("rgblight set hsv [EEPROM]: %u,%u,%u\n", rgblight_config.hue, rgblight_config.sat, rgbl
 360:quantum/rgblight.c ****   }
 361:quantum/rgblight.c **** }
 362:quantum/rgblight.c **** 
 363:quantum/rgblight.c **** void rgblight_setrgb(uint8_t r, uint8_t g, uint8_t b) {
 364:quantum/rgblight.c ****   // dprintf("rgblight set rgb: %u,%u,%u\n", r,g,b);
 365:quantum/rgblight.c ****   for (uint8_t i = 0; i < RGBLED_NUM; i++) {
 366:quantum/rgblight.c ****     led[i].r = r;
 367:quantum/rgblight.c ****     led[i].g = g;
 368:quantum/rgblight.c ****     led[i].b = b;
 369:quantum/rgblight.c ****   }
 370:quantum/rgblight.c ****   rgblight_set();
 371:quantum/rgblight.c **** }
 372:quantum/rgblight.c **** 
 373:quantum/rgblight.c **** __attribute__ ((weak))
 374:quantum/rgblight.c **** void rgblight_set(void) {
 454               		.loc 1 374 25 is_stmt 1 view -0
 455               		.cfi_startproc
 456               	/* prologue: function */
 457               	/* frame size = 0 */
 458               	/* stack size = 0 */
 459               	.L__stack_usage = 0
 375:quantum/rgblight.c ****   if (rgblight_config.enable) {
 460               		.loc 1 375 3 view .LVU124
 461               		.loc 1 375 7 is_stmt 0 view .LVU125
 462 0000 8091 0000 		lds r24,rgblight_config
 463 0004 E0E0      		ldi r30,lo8(led)
 464 0006 F0E0      		ldi r31,hi8(led)
 465               		.loc 1 375 6 view .LVU126
 466 0008 80FF      		sbrs r24,0
 467 000a 00C0      		rjmp .L20
 468               	.L21:
 376:quantum/rgblight.c ****     #ifdef RGBW
 377:quantum/rgblight.c ****       ws2812_setleds_rgbw(led, RGBLED_NUM);
 378:quantum/rgblight.c ****     #else
 379:quantum/rgblight.c ****       ws2812_setleds(led, RGBLED_NUM);
 469               		.loc 1 379 7 is_stmt 1 view .LVU127
 470 000c 64E0      		ldi r22,lo8(4)
 471 000e 70E0      		ldi r23,0
 472 0010 80E0      		ldi r24,lo8(led)
 473 0012 90E0      		ldi r25,hi8(led)
 474 0014 0C94 0000 		jmp ws2812_setleds
 475               	.LVL34:
 476               	.L20:
 477               	.LBB14:
 380:quantum/rgblight.c ****     #endif
 381:quantum/rgblight.c ****   } else {
 382:quantum/rgblight.c ****     for (uint8_t i = 0; i < RGBLED_NUM; i++) {
 383:quantum/rgblight.c ****       led[i].r = 0;
 478               		.loc 1 383 7 discriminator 3 view .LVU128
 479               		.loc 1 383 16 is_stmt 0 discriminator 3 view .LVU129
 480 0018 1182      		std Z+1,__zero_reg__
 384:quantum/rgblight.c ****       led[i].g = 0;
 481               		.loc 1 384 7 is_stmt 1 discriminator 3 view .LVU130
 482               		.loc 1 384 16 is_stmt 0 discriminator 3 view .LVU131
 483 001a 1082      		st Z,__zero_reg__
 385:quantum/rgblight.c ****       led[i].b = 0;
 484               		.loc 1 385 7 is_stmt 1 discriminator 3 view .LVU132
 485               		.loc 1 385 16 is_stmt 0 discriminator 3 view .LVU133
 486 001c 1282      		std Z+2,__zero_reg__
 487               	.LVL35:
 488               		.loc 1 385 16 discriminator 3 view .LVU134
 489 001e 3396      		adiw r30,3
 382:quantum/rgblight.c ****       led[i].r = 0;
 490               		.loc 1 382 5 discriminator 3 view .LVU135
 491 0020 80E0      		ldi r24,hi8(led+12)
 492 0022 E030      		cpi r30,lo8(led+12)
 493 0024 F807      		cpc r31,r24
 494 0026 01F4      		brne .L20
 495 0028 00C0      		rjmp .L21
 496               	.LBE14:
 497               		.cfi_endproc
 498               	.LFE30:
 500               		.section	.text.rgblight_setrgb,"ax",@progbits
 501               	.global	rgblight_setrgb
 503               	rgblight_setrgb:
 504               	.LVL36:
 505               	.LFB29:
 363:quantum/rgblight.c ****   // dprintf("rgblight set rgb: %u,%u,%u\n", r,g,b);
 506               		.loc 1 363 55 is_stmt 1 view -0
 507               		.cfi_startproc
 508               	/* prologue: function */
 509               	/* frame size = 0 */
 510               	/* stack size = 0 */
 511               	.L__stack_usage = 0
 365:quantum/rgblight.c ****     led[i].r = r;
 512               		.loc 1 365 3 view .LVU137
 513               	.LBB15:
 365:quantum/rgblight.c ****     led[i].r = r;
 514               		.loc 1 365 8 view .LVU138
 365:quantum/rgblight.c ****     led[i].r = r;
 515               		.loc 1 365 8 is_stmt 0 view .LVU139
 516 0000 E0E0      		ldi r30,lo8(led)
 517 0002 F0E0      		ldi r31,hi8(led)
 518               	.LVL37:
 519               	.L24:
 366:quantum/rgblight.c ****     led[i].g = g;
 520               		.loc 1 366 5 is_stmt 1 discriminator 3 view .LVU140
 366:quantum/rgblight.c ****     led[i].g = g;
 521               		.loc 1 366 14 is_stmt 0 discriminator 3 view .LVU141
 522 0004 8183      		std Z+1,r24
 367:quantum/rgblight.c ****     led[i].b = b;
 523               		.loc 1 367 5 is_stmt 1 discriminator 3 view .LVU142
 367:quantum/rgblight.c ****     led[i].b = b;
 524               		.loc 1 367 14 is_stmt 0 discriminator 3 view .LVU143
 525 0006 6083      		st Z,r22
 368:quantum/rgblight.c ****   }
 526               		.loc 1 368 5 is_stmt 1 discriminator 3 view .LVU144
 368:quantum/rgblight.c ****   }
 527               		.loc 1 368 14 is_stmt 0 discriminator 3 view .LVU145
 528 0008 4283      		std Z+2,r20
 368:quantum/rgblight.c ****   }
 529               		.loc 1 368 14 discriminator 3 view .LVU146
 530 000a 3396      		adiw r30,3
 365:quantum/rgblight.c ****     led[i].r = r;
 531               		.loc 1 365 3 discriminator 3 view .LVU147
 532 000c 90E0      		ldi r25,hi8(led+12)
 533 000e E030      		cpi r30,lo8(led+12)
 534 0010 F907      		cpc r31,r25
 535 0012 01F4      		brne .L24
 365:quantum/rgblight.c ****     led[i].r = r;
 536               		.loc 1 365 3 discriminator 3 view .LVU148
 537               	.LBE15:
 370:quantum/rgblight.c **** }
 538               		.loc 1 370 3 is_stmt 1 view .LVU149
 539 0014 0C94 0000 		jmp rgblight_set
 540               	.LVL38:
 370:quantum/rgblight.c **** }
 541               		.loc 1 370 3 is_stmt 0 view .LVU150
 542               		.cfi_endproc
 543               	.LFE29:
 545               		.section	.text.rgblight_sethsv_noeeprom,"ax",@progbits
 546               	.global	rgblight_sethsv_noeeprom
 548               	rgblight_sethsv_noeeprom:
 549               	.LVL39:
 550               	.LFB27:
 328:quantum/rgblight.c ****   inmem_config.raw = rgblight_config.raw;
 551               		.loc 1 328 71 is_stmt 1 view -0
 552               		.cfi_startproc
 328:quantum/rgblight.c ****   inmem_config.raw = rgblight_config.raw;
 553               		.loc 1 328 71 is_stmt 0 view .LVU152
 554 0000 EF92      		push r14
 555               	.LCFI8:
 556               		.cfi_def_cfa_offset 3
 557               		.cfi_offset 14, -2
 558 0002 FF92      		push r15
 559               	.LCFI9:
 560               		.cfi_def_cfa_offset 4
 561               		.cfi_offset 15, -3
 562 0004 0F93      		push r16
 563               	.LCFI10:
 564               		.cfi_def_cfa_offset 5
 565               		.cfi_offset 16, -4
 566 0006 1F93      		push r17
 567               	.LCFI11:
 568               		.cfi_def_cfa_offset 6
 569               		.cfi_offset 17, -5
 570 0008 CF93      		push r28
 571               	.LCFI12:
 572               		.cfi_def_cfa_offset 7
 573               		.cfi_offset 28, -6
 574 000a DF93      		push r29
 575               	.LCFI13:
 576               		.cfi_def_cfa_offset 8
 577               		.cfi_offset 29, -7
 578 000c 00D0      		rcall .
 579 000e 0F92      		push __tmp_reg__
 580               	.LCFI14:
 581               		.cfi_def_cfa_offset 11
 582 0010 CDB7      		in r28,__SP_L__
 583 0012 DEB7      		in r29,__SP_H__
 584               	.LCFI15:
 585               		.cfi_def_cfa_register 28
 586               	/* prologue: function */
 587               	/* frame size = 3 */
 588               	/* stack size = 9 */
 589               	.L__stack_usage = 9
 590 0014 182F      		mov r17,r24
 591 0016 E92E      		mov r14,r25
 592 0018 F62E      		mov r15,r22
 593 001a 042F      		mov r16,r20
 329:quantum/rgblight.c ****   if (rgblight_config.enable) {
 594               		.loc 1 329 3 is_stmt 1 view .LVU153
 329:quantum/rgblight.c ****   if (rgblight_config.enable) {
 595               		.loc 1 329 20 is_stmt 0 view .LVU154
 596 001c 8091 0000 		lds r24,rgblight_config
 597 0020 9091 0000 		lds r25,rgblight_config+1
 598 0024 A091 0000 		lds r26,rgblight_config+2
 599 0028 B091 0000 		lds r27,rgblight_config+3
 600               	.LVL40:
 329:quantum/rgblight.c ****   if (rgblight_config.enable) {
 601               		.loc 1 329 20 view .LVU155
 602 002c 8093 0000 		sts inmem_config,r24
 603 0030 9093 0000 		sts inmem_config+1,r25
 604 0034 A093 0000 		sts inmem_config+2,r26
 605 0038 B093 0000 		sts inmem_config+3,r27
 330:quantum/rgblight.c ****     LED_TYPE tmp_led;
 606               		.loc 1 330 3 is_stmt 1 view .LVU156
 330:quantum/rgblight.c ****     LED_TYPE tmp_led;
 607               		.loc 1 330 7 is_stmt 0 view .LVU157
 608 003c 8091 0000 		lds r24,rgblight_config
 330:quantum/rgblight.c ****     LED_TYPE tmp_led;
 609               		.loc 1 330 6 view .LVU158
 610 0040 80FF      		sbrs r24,0
 611 0042 00C0      		rjmp .L26
 612               	.LBB16:
 331:quantum/rgblight.c ****     sethsv(hue, sat, val, &tmp_led);
 613               		.loc 1 331 5 is_stmt 1 view .LVU159
 332:quantum/rgblight.c ****     inmem_config.hue = hue;
 614               		.loc 1 332 5 view .LVU160
 615 0044 9E01      		movw r18,r28
 616 0046 2F5F      		subi r18,-1
 617 0048 3F4F      		sbci r19,-1
 618 004a 812F      		mov r24,r17
 619 004c 9E2D      		mov r25,r14
 620 004e 0E94 0000 		call sethsv
 621               	.LVL41:
 333:quantum/rgblight.c ****     inmem_config.sat = sat;
 622               		.loc 1 333 5 view .LVU161
 333:quantum/rgblight.c ****     inmem_config.sat = sat;
 623               		.loc 1 333 22 is_stmt 0 view .LVU162
 624 0052 8091 0000 		lds r24,inmem_config
 625 0056 10FB      		bst r17,0
 626 0058 87F9      		bld r24,7
 627 005a 8093 0000 		sts inmem_config,r24
 628 005e 1695      		lsr r17
 629 0060 8091 0000 		lds r24,inmem_config+1
 630 0064 8078      		andi r24,lo8(-128)
 631 0066 812B      		or r24,r17
 632 0068 E0FA      		bst r14,0
 633 006a 87F9      		bld r24,7
 634 006c 8093 0000 		sts inmem_config+1,r24
 334:quantum/rgblight.c ****     inmem_config.val = val;
 635               		.loc 1 334 5 is_stmt 1 view .LVU163
 334:quantum/rgblight.c ****     inmem_config.val = val;
 636               		.loc 1 334 22 is_stmt 0 view .LVU164
 637 0070 F092 0000 		sts inmem_config+2,r15
 335:quantum/rgblight.c ****     // dprintf("rgblight set hue [MEMORY]: %u,%u,%u\n", inmem_config.hue, inmem_config.sat, inmem_c
 638               		.loc 1 335 5 is_stmt 1 view .LVU165
 335:quantum/rgblight.c ****     // dprintf("rgblight set hue [MEMORY]: %u,%u,%u\n", inmem_config.hue, inmem_config.sat, inmem_c
 639               		.loc 1 335 22 is_stmt 0 view .LVU166
 640 0074 0093 0000 		sts inmem_config+3,r16
 337:quantum/rgblight.c ****   }
 641               		.loc 1 337 5 is_stmt 1 view .LVU167
 642 0078 4B81      		ldd r20,Y+3
 643 007a 6981      		ldd r22,Y+1
 644 007c 8A81      		ldd r24,Y+2
 645 007e 0E94 0000 		call rgblight_setrgb
 646               	.LVL42:
 647               	.L26:
 648               	/* epilogue start */
 649               	.LBE16:
 339:quantum/rgblight.c **** void rgblight_sethsv(uint16_t hue, uint8_t sat, uint8_t val) {
 650               		.loc 1 339 1 is_stmt 0 view .LVU168
 651 0082 0F90      		pop __tmp_reg__
 652 0084 0F90      		pop __tmp_reg__
 653 0086 0F90      		pop __tmp_reg__
 654 0088 DF91      		pop r29
 655 008a CF91      		pop r28
 656 008c 1F91      		pop r17
 657 008e 0F91      		pop r16
 658               	.LVL43:
 339:quantum/rgblight.c **** void rgblight_sethsv(uint16_t hue, uint8_t sat, uint8_t val) {
 659               		.loc 1 339 1 view .LVU169
 660 0090 FF90      		pop r15
 661               	.LVL44:
 339:quantum/rgblight.c **** void rgblight_sethsv(uint16_t hue, uint8_t sat, uint8_t val) {
 662               		.loc 1 339 1 view .LVU170
 663 0092 EF90      		pop r14
 664 0094 0895      		ret
 665               		.cfi_endproc
 666               	.LFE27:
 668               		.section	.text.rgblight_sethsv,"ax",@progbits
 669               	.global	rgblight_sethsv
 671               	rgblight_sethsv:
 672               	.LVL45:
 673               	.LFB28:
 340:quantum/rgblight.c ****   if (rgblight_config.enable) {
 674               		.loc 1 340 62 is_stmt 1 view -0
 675               		.cfi_startproc
 340:quantum/rgblight.c ****   if (rgblight_config.enable) {
 676               		.loc 1 340 62 is_stmt 0 view .LVU172
 677 0000 0F93      		push r16
 678               	.LCFI16:
 679               		.cfi_def_cfa_offset 3
 680               		.cfi_offset 16, -2
 681 0002 1F93      		push r17
 682               	.LCFI17:
 683               		.cfi_def_cfa_offset 4
 684               		.cfi_offset 17, -3
 685 0004 CF93      		push r28
 686               	.LCFI18:
 687               		.cfi_def_cfa_offset 5
 688               		.cfi_offset 28, -4
 689 0006 DF93      		push r29
 690               	.LCFI19:
 691               		.cfi_def_cfa_offset 6
 692               		.cfi_offset 29, -5
 693               	/* prologue: function */
 694               	/* frame size = 0 */
 695               	/* stack size = 4 */
 696               	.L__stack_usage = 4
 697 0008 EC01      		movw r28,r24
 698 000a 062F      		mov r16,r22
 699 000c 142F      		mov r17,r20
 341:quantum/rgblight.c ****     if (rgblight_config.mode == 1) {
 700               		.loc 1 341 3 is_stmt 1 view .LVU173
 341:quantum/rgblight.c ****     if (rgblight_config.mode == 1) {
 701               		.loc 1 341 7 is_stmt 0 view .LVU174
 702 000e 9091 0000 		lds r25,rgblight_config
 341:quantum/rgblight.c ****     if (rgblight_config.mode == 1) {
 703               		.loc 1 341 6 view .LVU175
 704 0012 90FF      		sbrs r25,0
 705 0014 00C0      		rjmp .L31
 342:quantum/rgblight.c ****       // same static color
 706               		.loc 1 342 5 is_stmt 1 view .LVU176
 342:quantum/rgblight.c ****       // same static color
 707               		.loc 1 342 30 is_stmt 0 view .LVU177
 708 0016 892F      		mov r24,r25
 709               	.LVL46:
 342:quantum/rgblight.c ****       // same static color
 710               		.loc 1 342 30 view .LVU178
 711 0018 8E77      		andi r24,lo8(126)
 342:quantum/rgblight.c ****       // same static color
 712               		.loc 1 342 8 view .LVU179
 713 001a 8230      		cpi r24,lo8(2)
 714 001c 01F4      		brne .L33
 344:quantum/rgblight.c ****     } else {
 715               		.loc 1 344 7 is_stmt 1 view .LVU180
 716 001e CE01      		movw r24,r28
 717 0020 0E94 0000 		call rgblight_sethsv_noeeprom
 718               	.LVL47:
 719               	.L34:
 355:quantum/rgblight.c ****     rgblight_config.sat = sat;
 720               		.loc 1 355 5 view .LVU181
 355:quantum/rgblight.c ****     rgblight_config.sat = sat;
 721               		.loc 1 355 25 is_stmt 0 view .LVU182
 722 0024 8091 0000 		lds r24,rgblight_config
 723 0028 C0FB      		bst r28,0
 724 002a 87F9      		bld r24,7
 725 002c 8093 0000 		sts rgblight_config,r24
 726 0030 C695      		lsr r28
 727               	.LVL48:
 355:quantum/rgblight.c ****     rgblight_config.sat = sat;
 728               		.loc 1 355 25 view .LVU183
 729 0032 8091 0000 		lds r24,rgblight_config+1
 730 0036 8078      		andi r24,lo8(-128)
 731 0038 C82B      		or r28,r24
 732 003a D0FB      		bst r29,0
 733 003c C7F9      		bld r28,7
 734 003e C093 0000 		sts rgblight_config+1,r28
 356:quantum/rgblight.c ****     rgblight_config.val = val;
 735               		.loc 1 356 5 is_stmt 1 view .LVU184
 356:quantum/rgblight.c ****     rgblight_config.val = val;
 736               		.loc 1 356 25 is_stmt 0 view .LVU185
 737 0042 0093 0000 		sts rgblight_config+2,r16
 357:quantum/rgblight.c ****     eeconfig_update_rgblight(rgblight_config.raw);
 738               		.loc 1 357 5 is_stmt 1 view .LVU186
 357:quantum/rgblight.c ****     eeconfig_update_rgblight(rgblight_config.raw);
 739               		.loc 1 357 25 is_stmt 0 view .LVU187
 740 0046 1093 0000 		sts rgblight_config+3,r17
 358:quantum/rgblight.c ****     xprintf("rgblight set hsv [EEPROM]: %u,%u,%u\n", rgblight_config.hue, rgblight_config.sat, rgbl
 741               		.loc 1 358 5 is_stmt 1 view .LVU188
 742 004a 6091 0000 		lds r22,rgblight_config
 743 004e 7091 0000 		lds r23,rgblight_config+1
 744 0052 8091 0000 		lds r24,rgblight_config+2
 745 0056 9091 0000 		lds r25,rgblight_config+3
 746               	/* epilogue start */
 361:quantum/rgblight.c **** 
 747               		.loc 1 361 1 is_stmt 0 view .LVU189
 748 005a DF91      		pop r29
 749 005c CF91      		pop r28
 750 005e 1F91      		pop r17
 751               	.LVL49:
 361:quantum/rgblight.c **** 
 752               		.loc 1 361 1 view .LVU190
 753 0060 0F91      		pop r16
 754               	.LVL50:
 358:quantum/rgblight.c ****     xprintf("rgblight set hsv [EEPROM]: %u,%u,%u\n", rgblight_config.hue, rgblight_config.sat, rgbl
 755               		.loc 1 358 5 view .LVU191
 756 0062 0C94 0000 		jmp eeconfig_update_rgblight
 757               	.LVL51:
 758               	.L33:
 347:quantum/rgblight.c ****         // breathing mode, ignore the change of val, use in memory value instead
 759               		.loc 1 347 7 is_stmt 1 view .LVU192
 347:quantum/rgblight.c ****         // breathing mode, ignore the change of val, use in memory value instead
 760               		.loc 1 347 26 is_stmt 0 view .LVU193
 761 0066 892F      		mov r24,r25
 762 0068 8695      		lsr r24
 763 006a 8F73      		andi r24,lo8(63)
 347:quantum/rgblight.c ****         // breathing mode, ignore the change of val, use in memory value instead
 764               		.loc 1 347 37 view .LVU194
 765 006c 2EE3      		ldi r18,lo8(62)
 766 006e 280F      		add r18,r24
 767 0070 2F73      		andi r18,lo8(63)
 347:quantum/rgblight.c ****         // breathing mode, ignore the change of val, use in memory value instead
 768               		.loc 1 347 10 view .LVU195
 769 0072 2430      		cpi r18,lo8(4)
 770 0074 00F4      		brsh .L35
 349:quantum/rgblight.c ****       } else if (rgblight_config.mode >= 6 && rgblight_config.mode <= 14) {
 771               		.loc 1 349 9 is_stmt 1 view .LVU196
 349:quantum/rgblight.c ****       } else if (rgblight_config.mode >= 6 && rgblight_config.mode <= 14) {
 772               		.loc 1 349 13 is_stmt 0 view .LVU197
 773 0076 1091 0000 		lds r17,rgblight_config+3
 774               	.LVL52:
 349:quantum/rgblight.c ****       } else if (rgblight_config.mode >= 6 && rgblight_config.mode <= 14) {
 775               		.loc 1 349 13 view .LVU198
 776 007a 00C0      		rjmp .L34
 777               	.L35:
 350:quantum/rgblight.c ****         // rainbow mood and rainbow swirl, ignore the change of hue
 778               		.loc 1 350 14 is_stmt 1 view .LVU199
 350:quantum/rgblight.c ****         // rainbow mood and rainbow swirl, ignore the change of hue
 779               		.loc 1 350 44 is_stmt 0 view .LVU200
 780 007c 865C      		subi r24,lo8(-(58))
 781 007e 8F73      		andi r24,lo8(63)
 350:quantum/rgblight.c ****         // rainbow mood and rainbow swirl, ignore the change of hue
 782               		.loc 1 350 17 view .LVU201
 783 0080 8930      		cpi r24,lo8(9)
 784 0082 00F4      		brsh .L34
 352:quantum/rgblight.c ****       }
 785               		.loc 1 352 9 is_stmt 1 view .LVU202
 352:quantum/rgblight.c ****       }
 786               		.loc 1 352 30 is_stmt 0 view .LVU203
 787 0084 991F      		rol r25
 788 0086 9927      		clr r25
 789 0088 991F      		rol r25
 790 008a D091 0000 		lds r29,rgblight_config+1
 791 008e CD2F      		mov r28,r29
 792               	.LVL53:
 352:quantum/rgblight.c ****       }
 793               		.loc 1 352 30 view .LVU204
 794 0090 CC0F      		lsl r28
 795 0092 C92B      		or r28,r25
 796 0094 D7FB      		bst r29,7
 797 0096 DD27      		clr r29
 798 0098 D0F9      		bld r29,0
 799               	.LVL54:
 352:quantum/rgblight.c ****       }
 800               		.loc 1 352 30 view .LVU205
 801 009a 00C0      		rjmp .L34
 802               	.LVL55:
 803               	.L31:
 804               	/* epilogue start */
 361:quantum/rgblight.c **** 
 805               		.loc 1 361 1 view .LVU206
 806 009c DF91      		pop r29
 807 009e CF91      		pop r28
 808 00a0 1F91      		pop r17
 809               	.LVL56:
 361:quantum/rgblight.c **** 
 810               		.loc 1 361 1 view .LVU207
 811 00a2 0F91      		pop r16
 812               	.LVL57:
 361:quantum/rgblight.c **** 
 813               		.loc 1 361 1 view .LVU208
 814 00a4 0895      		ret
 815               		.cfi_endproc
 816               	.LFE28:
 818               		.section	.text.rgblight_increase_hue,"ax",@progbits
 819               	.global	rgblight_increase_hue
 821               	rgblight_increase_hue:
 822               	.LFB21:
 277:quantum/rgblight.c ****   uint16_t hue;
 823               		.loc 1 277 34 is_stmt 1 view -0
 824               		.cfi_startproc
 825               	/* prologue: function */
 826               	/* frame size = 0 */
 827               	/* stack size = 0 */
 828               	.L__stack_usage = 0
 278:quantum/rgblight.c ****   hue = (rgblight_config.hue+RGBLIGHT_HUE_STEP) % 360;
 829               		.loc 1 278 3 view .LVU210
 279:quantum/rgblight.c ****   rgblight_sethsv(hue, rgblight_config.sat, rgblight_config.val);
 830               		.loc 1 279 3 view .LVU211
 831               	.LVL58:
 280:quantum/rgblight.c **** }
 832               		.loc 1 280 3 view .LVU212
 833 0000 E0E0      		ldi r30,lo8(rgblight_config)
 834 0002 F0E0      		ldi r31,hi8(rgblight_config)
 835               	.LVL59:
 279:quantum/rgblight.c ****   rgblight_sethsv(hue, rgblight_config.sat, rgblight_config.val);
 836               		.loc 1 279 25 is_stmt 0 view .LVU213
 837 0004 2081      		ld r18,Z
 838 0006 221F      		rol r18
 839 0008 2227      		clr r18
 840 000a 221F      		rol r18
 841 000c 3091 0000 		lds r19,rgblight_config+1
 842 0010 432F      		mov r20,r19
 843 0012 440F      		lsl r20
 844 0014 842F      		mov r24,r20
 845 0016 822B      		or r24,r18
 846 0018 37FB      		bst r19,7
 847 001a 9927      		clr r25
 848 001c 90F9      		bld r25,0
 279:quantum/rgblight.c ****   rgblight_sethsv(hue, rgblight_config.sat, rgblight_config.val);
 849               		.loc 1 279 29 view .LVU214
 850 001e 0896      		adiw r24,8
 279:quantum/rgblight.c ****   rgblight_sethsv(hue, rgblight_config.sat, rgblight_config.val);
 851               		.loc 1 279 49 view .LVU215
 852 0020 68E6      		ldi r22,lo8(104)
 853 0022 71E0      		ldi r23,lo8(1)
 854 0024 0E94 0000 		call __divmodhi4
 280:quantum/rgblight.c **** }
 855               		.loc 1 280 3 view .LVU216
 856 0028 4381      		ldd r20,Z+3
 857 002a 6281      		ldd r22,Z+2
 858 002c 0C94 0000 		jmp rgblight_sethsv
 859               	.LVL60:
 280:quantum/rgblight.c **** }
 860               		.loc 1 280 3 view .LVU217
 861               		.cfi_endproc
 862               	.LFE21:
 864               		.section	.text.rgblight_decrease_hue,"ax",@progbits
 865               	.global	rgblight_decrease_hue
 867               	rgblight_decrease_hue:
 868               	.LFB22:
 282:quantum/rgblight.c ****   uint16_t hue;
 869               		.loc 1 282 34 is_stmt 1 view -0
 870               		.cfi_startproc
 871               	/* prologue: function */
 872               	/* frame size = 0 */
 873               	/* stack size = 0 */
 874               	.L__stack_usage = 0
 283:quantum/rgblight.c ****   if (rgblight_config.hue-RGBLIGHT_HUE_STEP < 0) {
 875               		.loc 1 283 3 view .LVU219
 284:quantum/rgblight.c ****     hue = (rgblight_config.hue + 360 - RGBLIGHT_HUE_STEP) % 360;
 876               		.loc 1 284 3 view .LVU220
 284:quantum/rgblight.c ****     hue = (rgblight_config.hue + 360 - RGBLIGHT_HUE_STEP) % 360;
 877               		.loc 1 284 22 is_stmt 0 view .LVU221
 878 0000 2091 0000 		lds r18,rgblight_config
 879 0004 221F      		rol r18
 880 0006 2227      		clr r18
 881 0008 221F      		rol r18
 882 000a 3091 0000 		lds r19,rgblight_config+1
 883 000e 432F      		mov r20,r19
 884 0010 440F      		lsl r20
 885 0012 842F      		mov r24,r20
 886 0014 822B      		or r24,r18
 887 0016 37FB      		bst r19,7
 888 0018 9927      		clr r25
 889 001a 90F9      		bld r25,0
 284:quantum/rgblight.c ****     hue = (rgblight_config.hue + 360 - RGBLIGHT_HUE_STEP) % 360;
 890               		.loc 1 284 6 view .LVU222
 891 001c 8830      		cpi r24,8
 892 001e 9105      		cpc r25,__zero_reg__
 893 0020 00F4      		brsh .L38
 285:quantum/rgblight.c ****   } else {
 894               		.loc 1 285 5 is_stmt 1 view .LVU223
 285:quantum/rgblight.c ****   } else {
 895               		.loc 1 285 38 is_stmt 0 view .LVU224
 896 0022 805A      		subi r24,-96
 897 0024 9E4F      		sbci r25,-2
 898               	.LVL61:
 899               	.L39:
 289:quantum/rgblight.c **** }
 900               		.loc 1 289 3 is_stmt 1 view .LVU225
 901 0026 4091 0000 		lds r20,rgblight_config+3
 902 002a 6091 0000 		lds r22,rgblight_config+2
 903 002e 0C94 0000 		jmp rgblight_sethsv
 904               	.LVL62:
 905               	.L38:
 287:quantum/rgblight.c ****   }
 906               		.loc 1 287 5 view .LVU226
 287:quantum/rgblight.c ****   }
 907               		.loc 1 287 32 is_stmt 0 view .LVU227
 908 0032 0897      		sbiw r24,8
 287:quantum/rgblight.c ****   }
 909               		.loc 1 287 9 view .LVU228
 910 0034 68E6      		ldi r22,lo8(104)
 911 0036 71E0      		ldi r23,lo8(1)
 912 0038 0E94 0000 		call __divmodhi4
 913               	.LVL63:
 287:quantum/rgblight.c ****   }
 914               		.loc 1 287 9 view .LVU229
 915 003c 00C0      		rjmp .L39
 916               		.cfi_endproc
 917               	.LFE22:
 919               		.section	.text.rgblight_increase_sat,"ax",@progbits
 920               	.global	rgblight_increase_sat
 922               	rgblight_increase_sat:
 923               	.LFB23:
 291:quantum/rgblight.c ****   uint8_t sat;
 924               		.loc 1 291 34 is_stmt 1 view -0
 925               		.cfi_startproc
 926               	/* prologue: function */
 927               	/* frame size = 0 */
 928               	/* stack size = 0 */
 929               	.L__stack_usage = 0
 292:quantum/rgblight.c ****   if (rgblight_config.sat + RGBLIGHT_SAT_STEP > 255) {
 930               		.loc 1 292 3 view .LVU231
 293:quantum/rgblight.c ****     sat = 255;
 931               		.loc 1 293 3 view .LVU232
 293:quantum/rgblight.c ****     sat = 255;
 932               		.loc 1 293 22 is_stmt 0 view .LVU233
 933 0000 6091 0000 		lds r22,rgblight_config+2
 293:quantum/rgblight.c ****     sat = 255;
 934               		.loc 1 293 6 view .LVU234
 935 0004 683F      		cpi r22,lo8(-8)
 936 0006 00F4      		brsh .L42
 296:quantum/rgblight.c ****   }
 937               		.loc 1 296 5 is_stmt 1 view .LVU235
 296:quantum/rgblight.c ****   }
 938               		.loc 1 296 9 is_stmt 0 view .LVU236
 939 0008 685F      		subi r22,lo8(-(8))
 940               	.LVL64:
 941               	.L41:
 298:quantum/rgblight.c **** }
 942               		.loc 1 298 3 is_stmt 1 view .LVU237
 298:quantum/rgblight.c **** }
 943               		.loc 1 298 34 is_stmt 0 view .LVU238
 944 000a 8091 0000 		lds r24,rgblight_config
 945 000e 881F      		rol r24
 946 0010 8827      		clr r24
 947 0012 881F      		rol r24
 948 0014 9091 0000 		lds r25,rgblight_config+1
 949 0018 292F      		mov r18,r25
 950 001a 220F      		lsl r18
 951 001c 97FB      		bst r25,7
 952 001e 9927      		clr r25
 953 0020 90F9      		bld r25,0
 298:quantum/rgblight.c **** }
 954               		.loc 1 298 3 view .LVU239
 955 0022 4091 0000 		lds r20,rgblight_config+3
 956 0026 822B      		or r24,r18
 957 0028 0C94 0000 		jmp rgblight_sethsv
 958               	.LVL65:
 959               	.L42:
 294:quantum/rgblight.c ****   } else {
 960               		.loc 1 294 9 view .LVU240
 961 002c 6FEF      		ldi r22,lo8(-1)
 962 002e 00C0      		rjmp .L41
 963               		.cfi_endproc
 964               	.LFE23:
 966               		.section	.text.rgblight_decrease_sat,"ax",@progbits
 967               	.global	rgblight_decrease_sat
 969               	rgblight_decrease_sat:
 970               	.LFB24:
 300:quantum/rgblight.c ****   uint8_t sat;
 971               		.loc 1 300 34 is_stmt 1 view -0
 972               		.cfi_startproc
 973               	/* prologue: function */
 974               	/* frame size = 0 */
 975               	/* stack size = 0 */
 976               	.L__stack_usage = 0
 301:quantum/rgblight.c ****   if (rgblight_config.sat - RGBLIGHT_SAT_STEP < 0) {
 977               		.loc 1 301 3 view .LVU242
 302:quantum/rgblight.c ****     sat = 0;
 978               		.loc 1 302 3 view .LVU243
 302:quantum/rgblight.c ****     sat = 0;
 979               		.loc 1 302 22 is_stmt 0 view .LVU244
 980 0000 6091 0000 		lds r22,rgblight_config+2
 302:quantum/rgblight.c ****     sat = 0;
 981               		.loc 1 302 6 view .LVU245
 982 0004 6830      		cpi r22,lo8(8)
 983 0006 00F0      		brlo .L45
 305:quantum/rgblight.c ****   }
 984               		.loc 1 305 5 is_stmt 1 view .LVU246
 305:quantum/rgblight.c ****   }
 985               		.loc 1 305 9 is_stmt 0 view .LVU247
 986 0008 6850      		subi r22,lo8(-(-8))
 987               	.LVL66:
 988               	.L44:
 307:quantum/rgblight.c **** }
 989               		.loc 1 307 3 is_stmt 1 view .LVU248
 307:quantum/rgblight.c **** }
 990               		.loc 1 307 34 is_stmt 0 view .LVU249
 991 000a 8091 0000 		lds r24,rgblight_config
 992 000e 881F      		rol r24
 993 0010 8827      		clr r24
 994 0012 881F      		rol r24
 995 0014 9091 0000 		lds r25,rgblight_config+1
 996 0018 292F      		mov r18,r25
 997 001a 220F      		lsl r18
 998 001c 97FB      		bst r25,7
 999 001e 9927      		clr r25
 1000 0020 90F9      		bld r25,0
 307:quantum/rgblight.c **** }
 1001               		.loc 1 307 3 view .LVU250
 1002 0022 4091 0000 		lds r20,rgblight_config+3
 1003 0026 822B      		or r24,r18
 1004 0028 0C94 0000 		jmp rgblight_sethsv
 1005               	.LVL67:
 1006               	.L45:
 303:quantum/rgblight.c ****   } else {
 1007               		.loc 1 303 9 view .LVU251
 1008 002c 60E0      		ldi r22,0
 1009 002e 00C0      		rjmp .L44
 1010               		.cfi_endproc
 1011               	.LFE24:
 1013               		.section	.text.rgblight_increase_val,"ax",@progbits
 1014               	.global	rgblight_increase_val
 1016               	rgblight_increase_val:
 1017               	.LFB25:
 309:quantum/rgblight.c ****   uint8_t val;
 1018               		.loc 1 309 34 is_stmt 1 view -0
 1019               		.cfi_startproc
 1020               	/* prologue: function */
 1021               	/* frame size = 0 */
 1022               	/* stack size = 0 */
 1023               	.L__stack_usage = 0
 310:quantum/rgblight.c ****   if (rgblight_config.val + RGBLIGHT_VAL_STEP > 255) {
 1024               		.loc 1 310 3 view .LVU253
 311:quantum/rgblight.c ****     val = 255;
 1025               		.loc 1 311 3 view .LVU254
 311:quantum/rgblight.c ****     val = 255;
 1026               		.loc 1 311 22 is_stmt 0 view .LVU255
 1027 0000 4091 0000 		lds r20,rgblight_config+3
 311:quantum/rgblight.c ****     val = 255;
 1028               		.loc 1 311 6 view .LVU256
 1029 0004 483F      		cpi r20,lo8(-8)
 1030 0006 00F4      		brsh .L48
 314:quantum/rgblight.c ****   }
 1031               		.loc 1 314 5 is_stmt 1 view .LVU257
 314:quantum/rgblight.c ****   }
 1032               		.loc 1 314 9 is_stmt 0 view .LVU258
 1033 0008 485F      		subi r20,lo8(-(8))
 1034               	.LVL68:
 1035               	.L47:
 316:quantum/rgblight.c **** }
 1036               		.loc 1 316 3 is_stmt 1 view .LVU259
 316:quantum/rgblight.c **** }
 1037               		.loc 1 316 34 is_stmt 0 view .LVU260
 1038 000a 8091 0000 		lds r24,rgblight_config
 1039 000e 881F      		rol r24
 1040 0010 8827      		clr r24
 1041 0012 881F      		rol r24
 1042 0014 9091 0000 		lds r25,rgblight_config+1
 1043 0018 292F      		mov r18,r25
 1044 001a 220F      		lsl r18
 1045 001c 97FB      		bst r25,7
 1046 001e 9927      		clr r25
 1047 0020 90F9      		bld r25,0
 316:quantum/rgblight.c **** }
 1048               		.loc 1 316 3 view .LVU261
 1049 0022 6091 0000 		lds r22,rgblight_config+2
 1050 0026 822B      		or r24,r18
 1051 0028 0C94 0000 		jmp rgblight_sethsv
 1052               	.LVL69:
 1053               	.L48:
 312:quantum/rgblight.c ****   } else {
 1054               		.loc 1 312 9 view .LVU262
 1055 002c 4FEF      		ldi r20,lo8(-1)
 1056 002e 00C0      		rjmp .L47
 1057               		.cfi_endproc
 1058               	.LFE25:
 1060               		.section	.text.rgblight_decrease_val,"ax",@progbits
 1061               	.global	rgblight_decrease_val
 1063               	rgblight_decrease_val:
 1064               	.LFB26:
 318:quantum/rgblight.c ****   uint8_t val;
 1065               		.loc 1 318 34 is_stmt 1 view -0
 1066               		.cfi_startproc
 1067               	/* prologue: function */
 1068               	/* frame size = 0 */
 1069               	/* stack size = 0 */
 1070               	.L__stack_usage = 0
 319:quantum/rgblight.c ****   if (rgblight_config.val - RGBLIGHT_VAL_STEP < 0) {
 1071               		.loc 1 319 3 view .LVU264
 320:quantum/rgblight.c ****     val = 0;
 1072               		.loc 1 320 3 view .LVU265
 320:quantum/rgblight.c ****     val = 0;
 1073               		.loc 1 320 22 is_stmt 0 view .LVU266
 1074 0000 4091 0000 		lds r20,rgblight_config+3
 320:quantum/rgblight.c ****     val = 0;
 1075               		.loc 1 320 6 view .LVU267
 1076 0004 4830      		cpi r20,lo8(8)
 1077 0006 00F0      		brlo .L51
 323:quantum/rgblight.c ****   }
 1078               		.loc 1 323 5 is_stmt 1 view .LVU268
 323:quantum/rgblight.c ****   }
 1079               		.loc 1 323 9 is_stmt 0 view .LVU269
 1080 0008 4850      		subi r20,lo8(-(-8))
 1081               	.LVL70:
 1082               	.L50:
 325:quantum/rgblight.c **** }
 1083               		.loc 1 325 3 is_stmt 1 view .LVU270
 325:quantum/rgblight.c **** }
 1084               		.loc 1 325 34 is_stmt 0 view .LVU271
 1085 000a 8091 0000 		lds r24,rgblight_config
 1086 000e 881F      		rol r24
 1087 0010 8827      		clr r24
 1088 0012 881F      		rol r24
 1089 0014 9091 0000 		lds r25,rgblight_config+1
 1090 0018 292F      		mov r18,r25
 1091 001a 220F      		lsl r18
 1092 001c 97FB      		bst r25,7
 1093 001e 9927      		clr r25
 1094 0020 90F9      		bld r25,0
 325:quantum/rgblight.c **** }
 1095               		.loc 1 325 3 view .LVU272
 1096 0022 6091 0000 		lds r22,rgblight_config+2
 1097 0026 822B      		or r24,r18
 1098 0028 0C94 0000 		jmp rgblight_sethsv
 1099               	.LVL71:
 1100               	.L51:
 321:quantum/rgblight.c ****   } else {
 1101               		.loc 1 321 9 view .LVU273
 1102 002c 40E0      		ldi r20,0
 1103 002e 00C0      		rjmp .L50
 1104               		.cfi_endproc
 1105               	.LFE26:
 1107               		.section	.text.rgblight_mode,"ax",@progbits
 1108               	.global	rgblight_mode
 1110               	rgblight_mode:
 1111               	.LVL72:
 1112               	.LFB18:
 223:quantum/rgblight.c ****   if (!rgblight_config.enable) {
 1113               		.loc 1 223 34 is_stmt 1 view -0
 1114               		.cfi_startproc
 1115               	/* prologue: function */
 1116               	/* frame size = 0 */
 1117               	/* stack size = 0 */
 1118               	.L__stack_usage = 0
 224:quantum/rgblight.c ****     return;
 1119               		.loc 1 224 3 view .LVU275
 224:quantum/rgblight.c ****     return;
 1120               		.loc 1 224 23 is_stmt 0 view .LVU276
 1121 0000 9091 0000 		lds r25,rgblight_config
 224:quantum/rgblight.c ****     return;
 1122               		.loc 1 224 6 view .LVU277
 1123 0004 90FF      		sbrs r25,0
 1124 0006 00C0      		rjmp .L52
 227:quantum/rgblight.c ****     rgblight_config.mode = 1;
 1125               		.loc 1 227 3 is_stmt 1 view .LVU278
 1126 0008 9178      		andi r25,lo8(-127)
 227:quantum/rgblight.c ****     rgblight_config.mode = 1;
 1127               		.loc 1 227 6 is_stmt 0 view .LVU279
 1128 000a 8111      		cpse r24,__zero_reg__
 1129 000c 00C0      		rjmp .L54
 228:quantum/rgblight.c ****   } else if (mode > RGBLIGHT_MODES) {
 1130               		.loc 1 228 5 is_stmt 1 view .LVU280
 228:quantum/rgblight.c ****   } else if (mode > RGBLIGHT_MODES) {
 1131               		.loc 1 228 26 is_stmt 0 view .LVU281
 1132 000e 9260      		ori r25,lo8(2)
 1133               	.LVL73:
 1134               	.L59:
 232:quantum/rgblight.c ****   }
 1135               		.loc 1 232 26 view .LVU282
 1136 0010 9093 0000 		sts rgblight_config,r25
 234:quantum/rgblight.c ****   xprintf("rgblight mode: %u\n", rgblight_config.mode);
 1137               		.loc 1 234 3 is_stmt 1 view .LVU283
 1138 0014 6091 0000 		lds r22,rgblight_config
 1139 0018 7091 0000 		lds r23,rgblight_config+1
 1140 001c 8091 0000 		lds r24,rgblight_config+2
 1141 0020 9091 0000 		lds r25,rgblight_config+3
 1142 0024 0E94 0000 		call eeconfig_update_rgblight
 1143               	.LVL74:
 235:quantum/rgblight.c ****   if (rgblight_config.mode == 1) {
 1144               		.loc 1 235 55 view .LVU284
 236:quantum/rgblight.c ****     #ifdef RGBLIGHT_ANIMATIONS
 1145               		.loc 1 236 3 view .LVU285
 236:quantum/rgblight.c ****     #ifdef RGBLIGHT_ANIMATIONS
 1146               		.loc 1 236 28 is_stmt 0 view .LVU286
 1147 0028 8091 0000 		lds r24,rgblight_config
 1148 002c 982F      		mov r25,r24
 1149 002e 9E77      		andi r25,lo8(126)
 236:quantum/rgblight.c ****     #ifdef RGBLIGHT_ANIMATIONS
 1150               		.loc 1 236 6 view .LVU287
 1151 0030 9230      		cpi r25,lo8(2)
 1152 0032 01F4      		brne .L57
 238:quantum/rgblight.c ****     #endif
 1153               		.loc 1 238 7 is_stmt 1 view .LVU288
 1154               	.LBB21:
 1155               	.LBI21:
 386:quantum/rgblight.c ****     }
 387:quantum/rgblight.c ****     #ifdef RGBW
 388:quantum/rgblight.c ****       ws2812_setleds_rgbw(led, RGBLED_NUM);
 389:quantum/rgblight.c ****     #else
 390:quantum/rgblight.c ****       ws2812_setleds(led, RGBLED_NUM);
 391:quantum/rgblight.c ****     #endif
 392:quantum/rgblight.c ****   }
 393:quantum/rgblight.c **** }
 394:quantum/rgblight.c **** 
 395:quantum/rgblight.c **** #ifdef RGBLIGHT_ANIMATIONS
 396:quantum/rgblight.c **** 
 397:quantum/rgblight.c **** // Animation timer -- AVR Timer3
 398:quantum/rgblight.c **** void rgblight_timer_init(void) {
 399:quantum/rgblight.c ****   // static uint8_t rgblight_timer_is_init = 0;
 400:quantum/rgblight.c ****   // if (rgblight_timer_is_init) {
 401:quantum/rgblight.c ****   //   return;
 402:quantum/rgblight.c ****   // }
 403:quantum/rgblight.c ****   // rgblight_timer_is_init = 1;
 404:quantum/rgblight.c ****   // /* Timer 3 setup */
 405:quantum/rgblight.c ****   // TCCR3B = _BV(WGM32) // CTC mode OCR3A as TOP
 406:quantum/rgblight.c ****   //       | _BV(CS30); // Clock selelct: clk/1
 407:quantum/rgblight.c ****   // /* Set TOP value */
 408:quantum/rgblight.c ****   // uint8_t sreg = SREG;
 409:quantum/rgblight.c ****   // cli();
 410:quantum/rgblight.c ****   // OCR3AH = (RGBLED_TIMER_TOP >> 8) & 0xff;
 411:quantum/rgblight.c ****   // OCR3AL = RGBLED_TIMER_TOP & 0xff;
 412:quantum/rgblight.c ****   // SREG = sreg;
 413:quantum/rgblight.c **** 
 414:quantum/rgblight.c ****   rgblight_timer_enabled = true;
 415:quantum/rgblight.c **** }
 416:quantum/rgblight.c **** void rgblight_timer_enable(void) {
 417:quantum/rgblight.c ****   rgblight_timer_enabled = true;
 418:quantum/rgblight.c ****   dprintf("TIMER3 enabled.\n");
 419:quantum/rgblight.c **** }
 420:quantum/rgblight.c **** void rgblight_timer_disable(void) {
 1156               		.loc 1 420 6 view .LVU289
 1157               	.LBB22:
 421:quantum/rgblight.c ****   rgblight_timer_enabled = false;
 1158               		.loc 1 421 3 view .LVU290
 1159               		.loc 1 421 26 is_stmt 0 view .LVU291
 1160 0034 1092 0000 		sts rgblight_timer_enabled,__zero_reg__
 422:quantum/rgblight.c ****   dprintf("TIMER3 disabled.\n");
 1161               		.loc 1 422 32 is_stmt 1 view .LVU292
 1162               	.L58:
 1163               	.LBE22:
 1164               	.LBE21:
 251:quantum/rgblight.c **** }
 1165               		.loc 1 251 3 view .LVU293
 251:quantum/rgblight.c **** }
 1166               		.loc 1 251 34 is_stmt 0 view .LVU294
 1167 0038 881F      		rol r24
 1168 003a 8827      		clr r24
 1169 003c 881F      		rol r24
 1170 003e 9091 0000 		lds r25,rgblight_config+1
 1171 0042 292F      		mov r18,r25
 1172 0044 220F      		lsl r18
 1173 0046 97FB      		bst r25,7
 1174 0048 9927      		clr r25
 1175 004a 90F9      		bld r25,0
 251:quantum/rgblight.c **** }
 1176               		.loc 1 251 3 view .LVU295
 1177 004c 4091 0000 		lds r20,rgblight_config+3
 1178 0050 6091 0000 		lds r22,rgblight_config+2
 1179 0054 822B      		or r24,r18
 1180 0056 0C94 0000 		jmp rgblight_sethsv
 1181               	.LVL75:
 1182               	.L54:
 229:quantum/rgblight.c ****     rgblight_config.mode = RGBLIGHT_MODES;
 1183               		.loc 1 229 10 is_stmt 1 view .LVU296
 229:quantum/rgblight.c ****     rgblight_config.mode = RGBLIGHT_MODES;
 1184               		.loc 1 229 13 is_stmt 0 view .LVU297
 1185 005a 8931      		cpi r24,lo8(25)
 1186 005c 00F0      		brlo .L56
 230:quantum/rgblight.c ****   } else {
 1187               		.loc 1 230 5 is_stmt 1 view .LVU298
 230:quantum/rgblight.c ****   } else {
 1188               		.loc 1 230 26 is_stmt 0 view .LVU299
 1189 005e 9063      		ori r25,lo8(48)
 1190 0060 00C0      		rjmp .L59
 1191               	.L56:
 232:quantum/rgblight.c ****   }
 1192               		.loc 1 232 5 is_stmt 1 view .LVU300
 232:quantum/rgblight.c ****   }
 1193               		.loc 1 232 26 is_stmt 0 view .LVU301
 1194 0062 8F73      		andi r24,lo8(63)
 1195               	.LVL76:
 232:quantum/rgblight.c ****   }
 1196               		.loc 1 232 26 view .LVU302
 1197 0064 880F      		lsl r24
 1198 0066 982B      		or r25,r24
 1199 0068 00C0      		rjmp .L59
 1200               	.L57:
 240:quantum/rgblight.c ****     // MODE 2-5, breathing
 1201               		.loc 1 240 10 is_stmt 1 view .LVU303
 240:quantum/rgblight.c ****     // MODE 2-5, breathing
 1202               		.loc 1 240 29 is_stmt 0 view .LVU304
 1203 006a 982F      		mov r25,r24
 1204 006c 9695      		lsr r25
 240:quantum/rgblight.c ****     // MODE 2-5, breathing
 1205               		.loc 1 240 40 view .LVU305
 1206 006e 925C      		subi r25,lo8(-(62))
 1207 0070 9F73      		andi r25,lo8(63)
 240:quantum/rgblight.c ****     // MODE 2-5, breathing
 1208               		.loc 1 240 13 view .LVU306
 1209 0072 9631      		cpi r25,lo8(22)
 1210 0074 00F4      		brsh .L58
 248:quantum/rgblight.c ****     #endif
 1211               		.loc 1 248 7 is_stmt 1 view .LVU307
 1212               	.LBB23:
 1213               	.LBI23:
 398:quantum/rgblight.c ****   // static uint8_t rgblight_timer_is_init = 0;
 1214               		.loc 1 398 6 view .LVU308
 1215               	.LBB24:
 414:quantum/rgblight.c **** }
 1216               		.loc 1 414 3 view .LVU309
 414:quantum/rgblight.c **** }
 1217               		.loc 1 414 26 is_stmt 0 view .LVU310
 1218 0076 91E0      		ldi r25,lo8(1)
 1219 0078 9093 0000 		sts rgblight_timer_enabled,r25
 1220 007c 00C0      		rjmp .L58
 1221               	.LVL77:
 1222               	.L52:
 1223               	/* epilogue start */
 414:quantum/rgblight.c **** }
 1224               		.loc 1 414 26 view .LVU311
 1225               	.LBE24:
 1226               	.LBE23:
 252:quantum/rgblight.c **** 
 1227               		.loc 1 252 1 view .LVU312
 1228 007e 0895      		ret
 1229               		.cfi_endproc
 1230               	.LFE18:
 1232               		.section	.text.rgblight_init,"ax",@progbits
 1233               	.global	rgblight_init
 1235               	rgblight_init:
 1236               	.LFB13:
 159:quantum/rgblight.c ****   debug_enable = 1; // Debug ON!
 1237               		.loc 1 159 26 is_stmt 1 view -0
 1238               		.cfi_startproc
 1239               	/* prologue: function */
 1240               	/* frame size = 0 */
 1241               	/* stack size = 0 */
 1242               	.L__stack_usage = 0
 160:quantum/rgblight.c ****   dprintf("rgblight_init called.\n");
 1243               		.loc 1 160 3 view .LVU314
 160:quantum/rgblight.c ****   dprintf("rgblight_init called.\n");
 1244               		.loc 1 160 16 is_stmt 0 view .LVU315
 1245 0000 8091 0000 		lds r24,debug_config
 1246 0004 8160      		ori r24,lo8(1<<0)
 1247 0006 8093 0000 		sts debug_config,r24
 161:quantum/rgblight.c ****   rgblight_inited = 1;
 1248               		.loc 1 161 37 is_stmt 1 view .LVU316
 162:quantum/rgblight.c ****   dprintf("rgblight_init start!\n");
 1249               		.loc 1 162 3 view .LVU317
 162:quantum/rgblight.c ****   dprintf("rgblight_init start!\n");
 1250               		.loc 1 162 19 is_stmt 0 view .LVU318
 1251 000a 81E0      		ldi r24,lo8(1)
 1252 000c 8093 0000 		sts rgblight_inited,r24
 163:quantum/rgblight.c ****   if (!eeconfig_is_enabled()) {
 1253               		.loc 1 163 36 is_stmt 1 view .LVU319
 164:quantum/rgblight.c ****     dprintf("rgblight_init eeconfig is not enabled.\n");
 1254               		.loc 1 164 3 view .LVU320
 164:quantum/rgblight.c ****     dprintf("rgblight_init eeconfig is not enabled.\n");
 1255               		.loc 1 164 8 is_stmt 0 view .LVU321
 1256 0010 0E94 0000 		call eeconfig_is_enabled
 1257               	.LVL78:
 164:quantum/rgblight.c ****     dprintf("rgblight_init eeconfig is not enabled.\n");
 1258               		.loc 1 164 6 view .LVU322
 1259 0014 8111      		cpse r24,__zero_reg__
 1260 0016 00C0      		rjmp .L61
 165:quantum/rgblight.c ****     eeconfig_init();
 1261               		.loc 1 165 56 is_stmt 1 view .LVU323
 166:quantum/rgblight.c ****     eeconfig_update_rgblight_default();
 1262               		.loc 1 166 5 view .LVU324
 1263 0018 0E94 0000 		call eeconfig_init
 1264               	.LVL79:
 167:quantum/rgblight.c ****   }
 1265               		.loc 1 167 5 view .LVU325
 1266 001c 0E94 0000 		call eeconfig_update_rgblight_default
 1267               	.LVL80:
 1268               	.L61:
 169:quantum/rgblight.c ****   if (!rgblight_config.mode) {
 1269               		.loc 1 169 3 view .LVU326
 169:quantum/rgblight.c ****   if (!rgblight_config.mode) {
 1270               		.loc 1 169 25 is_stmt 0 view .LVU327
 1271 0020 0E94 0000 		call eeconfig_read_rgblight
 1272               	.LVL81:
 169:quantum/rgblight.c ****   if (!rgblight_config.mode) {
 1273               		.loc 1 169 23 view .LVU328
 1274 0024 6093 0000 		sts rgblight_config,r22
 1275 0028 7093 0000 		sts rgblight_config+1,r23
 1276 002c 8093 0000 		sts rgblight_config+2,r24
 1277 0030 9093 0000 		sts rgblight_config+3,r25
 170:quantum/rgblight.c ****     dprintf("rgblight_init rgblight_config.mode = 0. Write default values to EEPROM.\n");
 1278               		.loc 1 170 3 is_stmt 1 view .LVU329
 170:quantum/rgblight.c ****     dprintf("rgblight_init rgblight_config.mode = 0. Write default values to EEPROM.\n");
 1279               		.loc 1 170 7 is_stmt 0 view .LVU330
 1280 0034 6E77      		andi r22,lo8(126)
 170:quantum/rgblight.c ****     dprintf("rgblight_init rgblight_config.mode = 0. Write default values to EEPROM.\n");
 1281               		.loc 1 170 6 view .LVU331
 1282 0036 01F4      		brne .L62
 171:quantum/rgblight.c ****     eeconfig_update_rgblight_default();
 1283               		.loc 1 171 89 is_stmt 1 view .LVU332
 172:quantum/rgblight.c ****     rgblight_config.raw = eeconfig_read_rgblight();
 1284               		.loc 1 172 5 view .LVU333
 1285 0038 0E94 0000 		call eeconfig_update_rgblight_default
 1286               	.LVL82:
 173:quantum/rgblight.c ****   }
 1287               		.loc 1 173 5 view .LVU334
 173:quantum/rgblight.c ****   }
 1288               		.loc 1 173 27 is_stmt 0 view .LVU335
 1289 003c 0E94 0000 		call eeconfig_read_rgblight
 1290               	.LVL83:
 173:quantum/rgblight.c ****   }
 1291               		.loc 1 173 25 view .LVU336
 1292 0040 6093 0000 		sts rgblight_config,r22
 1293 0044 7093 0000 		sts rgblight_config+1,r23
 1294 0048 8093 0000 		sts rgblight_config+2,r24
 1295 004c 9093 0000 		sts rgblight_config+3,r25
 1296               	.L62:
 175:quantum/rgblight.c **** 
 1297               		.loc 1 175 3 is_stmt 1 view .LVU337
 178:quantum/rgblight.c ****   #endif
 1298               		.loc 1 178 5 view .LVU338
 1299               	.LBB27:
 1300               	.LBI27:
 398:quantum/rgblight.c ****   // static uint8_t rgblight_timer_is_init = 0;
 1301               		.loc 1 398 6 view .LVU339
 1302               	.LBB28:
 414:quantum/rgblight.c **** }
 1303               		.loc 1 414 3 view .LVU340
 414:quantum/rgblight.c **** }
 1304               		.loc 1 414 26 is_stmt 0 view .LVU341
 1305 0050 81E0      		ldi r24,lo8(1)
 1306 0052 8093 0000 		sts rgblight_timer_enabled,r24
 1307               	.LBE28:
 1308               	.LBE27:
 181:quantum/rgblight.c ****     rgblight_mode(rgblight_config.mode);
 1309               		.loc 1 181 3 is_stmt 1 view .LVU342
 181:quantum/rgblight.c ****     rgblight_mode(rgblight_config.mode);
 1310               		.loc 1 181 7 is_stmt 0 view .LVU343
 1311 0056 8091 0000 		lds r24,rgblight_config
 181:quantum/rgblight.c ****     rgblight_mode(rgblight_config.mode);
 1312               		.loc 1 181 6 view .LVU344
 1313 005a 80FF      		sbrs r24,0
 1314 005c 00C0      		rjmp .L60
 182:quantum/rgblight.c ****   }
 1315               		.loc 1 182 5 is_stmt 1 view .LVU345
 182:quantum/rgblight.c ****   }
 1316               		.loc 1 182 34 is_stmt 0 view .LVU346
 1317 005e 8695      		lsr r24
 182:quantum/rgblight.c ****   }
 1318               		.loc 1 182 5 view .LVU347
 1319 0060 8F73      		andi r24,lo8(63)
 1320 0062 0C94 0000 		jmp rgblight_mode
 1321               	.LVL84:
 1322               	.L60:
 1323               	/* epilogue start */
 184:quantum/rgblight.c **** 
 1324               		.loc 1 184 1 view .LVU348
 1325 0066 0895      		ret
 1326               		.cfi_endproc
 1327               	.LFE13:
 1329               		.section	.text.rgblight_increase,"ax",@progbits
 1330               	.global	rgblight_increase
 1332               	rgblight_increase:
 1333               	.LFB15:
 199:quantum/rgblight.c ****   uint8_t mode = 0;
 1334               		.loc 1 199 30 is_stmt 1 view -0
 1335               		.cfi_startproc
 1336               	/* prologue: function */
 1337               	/* frame size = 0 */
 1338               	/* stack size = 0 */
 1339               	.L__stack_usage = 0
 200:quantum/rgblight.c ****   if (rgblight_config.mode < RGBLIGHT_MODES) {
 1340               		.loc 1 200 3 view .LVU350
 1341               	.LVL85:
 201:quantum/rgblight.c ****     mode = rgblight_config.mode + 1;
 1342               		.loc 1 201 3 view .LVU351
 201:quantum/rgblight.c ****     mode = rgblight_config.mode + 1;
 1343               		.loc 1 201 22 is_stmt 0 view .LVU352
 1344 0000 8091 0000 		lds r24,rgblight_config
 1345 0004 8695      		lsr r24
 1346 0006 8F73      		andi r24,lo8(63)
 201:quantum/rgblight.c ****     mode = rgblight_config.mode + 1;
 1347               		.loc 1 201 6 view .LVU353
 1348 0008 8831      		cpi r24,lo8(24)
 1349 000a 00F4      		brsh .L66
 202:quantum/rgblight.c ****   }
 1350               		.loc 1 202 5 is_stmt 1 view .LVU354
 202:quantum/rgblight.c ****   }
 1351               		.loc 1 202 10 is_stmt 0 view .LVU355
 1352 000c 8F5F      		subi r24,lo8(-(1))
 1353               	.LVL86:
 1354               	.L65:
 204:quantum/rgblight.c **** }
 1355               		.loc 1 204 3 is_stmt 1 view .LVU356
 1356 000e 0C94 0000 		jmp rgblight_mode
 1357               	.LVL87:
 1358               	.L66:
 200:quantum/rgblight.c ****   if (rgblight_config.mode < RGBLIGHT_MODES) {
 1359               		.loc 1 200 11 is_stmt 0 view .LVU357
 1360 0012 80E0      		ldi r24,0
 1361 0014 00C0      		rjmp .L65
 1362               		.cfi_endproc
 1363               	.LFE15:
 1365               		.section	.text.rgblight_decrease,"ax",@progbits
 1366               	.global	rgblight_decrease
 1368               	rgblight_decrease:
 1369               	.LFB16:
 206:quantum/rgblight.c ****   uint8_t mode = 0;
 1370               		.loc 1 206 30 is_stmt 1 view -0
 1371               		.cfi_startproc
 1372               	/* prologue: function */
 1373               	/* frame size = 0 */
 1374               	/* stack size = 0 */
 1375               	.L__stack_usage = 0
 207:quantum/rgblight.c ****   // Mode will never be < 1. If it ever is, eeprom needs to be initialized.
 1376               		.loc 1 207 3 view .LVU359
 1377               	.LVL88:
 209:quantum/rgblight.c ****     mode = rgblight_config.mode - 1;
 1378               		.loc 1 209 3 view .LVU360
 209:quantum/rgblight.c ****     mode = rgblight_config.mode - 1;
 1379               		.loc 1 209 22 is_stmt 0 view .LVU361
 1380 0000 8091 0000 		lds r24,rgblight_config
 1381 0004 8695      		lsr r24
 1382 0006 8F73      		andi r24,lo8(63)
 209:quantum/rgblight.c ****     mode = rgblight_config.mode - 1;
 1383               		.loc 1 209 6 view .LVU362
 1384 0008 8230      		cpi r24,lo8(2)
 1385 000a 00F0      		brlo .L69
 210:quantum/rgblight.c ****   }
 1386               		.loc 1 210 5 is_stmt 1 view .LVU363
 210:quantum/rgblight.c ****   }
 1387               		.loc 1 210 10 is_stmt 0 view .LVU364
 1388 000c 8150      		subi r24,lo8(-(-1))
 1389               	.LVL89:
 1390               	.L68:
 212:quantum/rgblight.c **** }
 1391               		.loc 1 212 3 is_stmt 1 view .LVU365
 1392 000e 0C94 0000 		jmp rgblight_mode
 1393               	.LVL90:
 1394               	.L69:
 207:quantum/rgblight.c ****   // Mode will never be < 1. If it ever is, eeprom needs to be initialized.
 1395               		.loc 1 207 11 is_stmt 0 view .LVU366
 1396 0012 80E0      		ldi r24,0
 1397 0014 00C0      		rjmp .L68
 1398               		.cfi_endproc
 1399               	.LFE16:
 1401               		.section	.text.rgblight_step,"ax",@progbits
 1402               	.global	rgblight_step
 1404               	rgblight_step:
 1405               	.LFB17:
 214:quantum/rgblight.c ****   uint8_t mode = 0;
 1406               		.loc 1 214 26 is_stmt 1 view -0
 1407               		.cfi_startproc
 1408               	/* prologue: function */
 1409               	/* frame size = 0 */
 1410               	/* stack size = 0 */
 1411               	.L__stack_usage = 0
 215:quantum/rgblight.c ****   mode = rgblight_config.mode + 1;
 1412               		.loc 1 215 3 view .LVU368
 1413               	.LVL91:
 216:quantum/rgblight.c ****   if (mode > RGBLIGHT_MODES) {
 1414               		.loc 1 216 3 view .LVU369
 216:quantum/rgblight.c ****   if (mode > RGBLIGHT_MODES) {
 1415               		.loc 1 216 25 is_stmt 0 view .LVU370
 1416 0000 8091 0000 		lds r24,rgblight_config
 1417 0004 8695      		lsr r24
 1418 0006 8F73      		andi r24,lo8(63)
 216:quantum/rgblight.c ****   if (mode > RGBLIGHT_MODES) {
 1419               		.loc 1 216 8 view .LVU371
 1420 0008 8F5F      		subi r24,lo8(-(1))
 1421               	.LVL92:
 217:quantum/rgblight.c ****     mode = 1;
 1422               		.loc 1 217 3 is_stmt 1 view .LVU372
 217:quantum/rgblight.c ****     mode = 1;
 1423               		.loc 1 217 6 is_stmt 0 view .LVU373
 1424 000a 8931      		cpi r24,lo8(25)
 1425 000c 00F0      		brlo .L71
 218:quantum/rgblight.c ****   }
 1426               		.loc 1 218 10 view .LVU374
 1427 000e 81E0      		ldi r24,lo8(1)
 1428               	.LVL93:
 1429               	.L71:
 220:quantum/rgblight.c **** }
 1430               		.loc 1 220 3 is_stmt 1 view .LVU375
 1431 0010 0C94 0000 		jmp rgblight_mode
 1432               	.LVL94:
 220:quantum/rgblight.c **** }
 1433               		.loc 1 220 3 is_stmt 0 view .LVU376
 1434               		.cfi_endproc
 1435               	.LFE17:
 1437               		.section	.text.rgblight_enable,"ax",@progbits
 1438               	.global	rgblight_enable
 1440               	rgblight_enable:
 1441               	.LFB20:
 269:quantum/rgblight.c ****   rgblight_config.enable = 1;
 1442               		.loc 1 269 28 is_stmt 1 view -0
 1443               		.cfi_startproc
 1444 0000 CF93      		push r28
 1445               	.LCFI20:
 1446               		.cfi_def_cfa_offset 3
 1447               		.cfi_offset 28, -2
 1448 0002 DF93      		push r29
 1449               	.LCFI21:
 1450               		.cfi_def_cfa_offset 4
 1451               		.cfi_offset 29, -3
 1452               	/* prologue: function */
 1453               	/* frame size = 0 */
 1454               	/* stack size = 2 */
 1455               	.L__stack_usage = 2
 270:quantum/rgblight.c ****   eeconfig_update_rgblight(rgblight_config.raw);
 1456               		.loc 1 270 3 view .LVU378
 270:quantum/rgblight.c ****   eeconfig_update_rgblight(rgblight_config.raw);
 1457               		.loc 1 270 26 is_stmt 0 view .LVU379
 1458 0004 C0E0      		ldi r28,lo8(rgblight_config)
 1459 0006 D0E0      		ldi r29,hi8(rgblight_config)
 1460 0008 8881      		ld r24,Y
 1461 000a 8160      		ori r24,lo8(1<<0)
 1462 000c 8883      		st Y,r24
 271:quantum/rgblight.c ****   xprintf("rgblight enable: rgblight_config.enable = %u\n", rgblight_config.enable);
 1463               		.loc 1 271 3 is_stmt 1 view .LVU380
 1464 000e 6091 0000 		lds r22,rgblight_config
 1465 0012 7091 0000 		lds r23,rgblight_config+1
 1466 0016 8091 0000 		lds r24,rgblight_config+2
 1467 001a 9091 0000 		lds r25,rgblight_config+3
 1468 001e 0E94 0000 		call eeconfig_update_rgblight
 1469               	.LVL95:
 272:quantum/rgblight.c ****   rgblight_mode(rgblight_config.mode);
 1470               		.loc 1 272 84 view .LVU381
 273:quantum/rgblight.c **** }
 1471               		.loc 1 273 3 view .LVU382
 273:quantum/rgblight.c **** }
 1472               		.loc 1 273 32 is_stmt 0 view .LVU383
 1473 0022 8881      		ld r24,Y
 1474 0024 8695      		lsr r24
 273:quantum/rgblight.c **** }
 1475               		.loc 1 273 3 view .LVU384
 1476 0026 8F73      		andi r24,lo8(63)
 1477               	/* epilogue start */
 274:quantum/rgblight.c **** 
 1478               		.loc 1 274 1 view .LVU385
 1479 0028 DF91      		pop r29
 1480 002a CF91      		pop r28
 273:quantum/rgblight.c **** }
 1481               		.loc 1 273 3 view .LVU386
 1482 002c 0C94 0000 		jmp rgblight_mode
 1483               	.LVL96:
 1484               		.cfi_endproc
 1485               	.LFE20:
 1487               		.section	.text.rgblight_update_dword,"ax",@progbits
 1488               	.global	rgblight_update_dword
 1490               	rgblight_update_dword:
 1491               	.LVL97:
 1492               	.LFB14:
 186:quantum/rgblight.c ****   rgblight_config.raw = dword;
 1493               		.loc 1 186 44 is_stmt 1 view -0
 1494               		.cfi_startproc
 1495               	/* prologue: function */
 1496               	/* frame size = 0 */
 1497               	/* stack size = 0 */
 1498               	.L__stack_usage = 0
 187:quantum/rgblight.c ****   eeconfig_update_rgblight(rgblight_config.raw);
 1499               		.loc 1 187 3 view .LVU388
 187:quantum/rgblight.c ****   eeconfig_update_rgblight(rgblight_config.raw);
 1500               		.loc 1 187 23 is_stmt 0 view .LVU389
 1501 0000 6093 0000 		sts rgblight_config,r22
 1502 0004 7093 0000 		sts rgblight_config+1,r23
 1503 0008 8093 0000 		sts rgblight_config+2,r24
 1504 000c 9093 0000 		sts rgblight_config+3,r25
 188:quantum/rgblight.c ****   if (rgblight_config.enable)
 1505               		.loc 1 188 3 is_stmt 1 view .LVU390
 1506 0010 0E94 0000 		call eeconfig_update_rgblight
 1507               	.LVL98:
 189:quantum/rgblight.c ****     rgblight_mode(rgblight_config.mode);
 1508               		.loc 1 189 3 view .LVU391
 189:quantum/rgblight.c ****     rgblight_mode(rgblight_config.mode);
 1509               		.loc 1 189 7 is_stmt 0 view .LVU392
 1510 0014 8091 0000 		lds r24,rgblight_config
 189:quantum/rgblight.c ****     rgblight_mode(rgblight_config.mode);
 1511               		.loc 1 189 6 view .LVU393
 1512 0018 80FF      		sbrs r24,0
 1513 001a 00C0      		rjmp .L74
 190:quantum/rgblight.c ****   else {
 1514               		.loc 1 190 5 is_stmt 1 view .LVU394
 190:quantum/rgblight.c ****   else {
 1515               		.loc 1 190 34 is_stmt 0 view .LVU395
 1516 001c 8695      		lsr r24
 190:quantum/rgblight.c ****   else {
 1517               		.loc 1 190 5 view .LVU396
 1518 001e 8F73      		andi r24,lo8(63)
 1519 0020 0C94 0000 		jmp rgblight_mode
 1520               	.LVL99:
 1521               	.L74:
 193:quantum/rgblight.c ****     #endif
 1522               		.loc 1 193 7 is_stmt 1 view .LVU397
 1523               	.LBB31:
 1524               	.LBI31:
 420:quantum/rgblight.c ****   rgblight_timer_enabled = false;
 1525               		.loc 1 420 6 view .LVU398
 1526               	.LBB32:
 421:quantum/rgblight.c ****   dprintf("TIMER3 disabled.\n");
 1527               		.loc 1 421 3 view .LVU399
 421:quantum/rgblight.c ****   dprintf("TIMER3 disabled.\n");
 1528               		.loc 1 421 26 is_stmt 0 view .LVU400
 1529 0024 1092 0000 		sts rgblight_timer_enabled,__zero_reg__
 1530               		.loc 1 422 32 is_stmt 1 view .LVU401
 1531               	.LBE32:
 1532               	.LBE31:
 195:quantum/rgblight.c ****   }
 1533               		.loc 1 195 7 view .LVU402
 1534 0028 0C94 0000 		jmp rgblight_set
 1535               	.LVL100:
 1536               		.cfi_endproc
 1537               	.LFE14:
 1539               		.section	.text.rgblight_toggle,"ax",@progbits
 1540               	.global	rgblight_toggle
 1542               	rgblight_toggle:
 1543               	.LFB19:
 254:quantum/rgblight.c ****   rgblight_config.enable ^= 1;
 1544               		.loc 1 254 28 view -0
 1545               		.cfi_startproc
 1546               	/* prologue: function */
 1547               	/* frame size = 0 */
 1548               	/* stack size = 0 */
 1549               	.L__stack_usage = 0
 255:quantum/rgblight.c ****   eeconfig_update_rgblight(rgblight_config.raw);
 1550               		.loc 1 255 3 view .LVU404
 255:quantum/rgblight.c ****   eeconfig_update_rgblight(rgblight_config.raw);
 1551               		.loc 1 255 26 is_stmt 0 view .LVU405
 1552 0000 9091 0000 		lds r25,rgblight_config
 1553 0004 892F      		mov r24,r25
 1554 0006 8E7F      		andi r24,~(1<<0)
 1555 0008 90FF      		sbrs r25,0
 1556 000a 8160      		ori r24,1<<0
 1557 000c 8093 0000 		sts rgblight_config,r24
 256:quantum/rgblight.c ****   xprintf("rgblight toggle: rgblight_config.enable = %u\n", rgblight_config.enable);
 1558               		.loc 1 256 3 is_stmt 1 view .LVU406
 1559 0010 6091 0000 		lds r22,rgblight_config
 1560 0014 7091 0000 		lds r23,rgblight_config+1
 1561 0018 8091 0000 		lds r24,rgblight_config+2
 1562 001c 9091 0000 		lds r25,rgblight_config+3
 1563 0020 0E94 0000 		call eeconfig_update_rgblight
 1564               	.LVL101:
 257:quantum/rgblight.c ****   if (rgblight_config.enable) {
 1565               		.loc 1 257 84 view .LVU407
 258:quantum/rgblight.c ****     rgblight_mode(rgblight_config.mode);
 1566               		.loc 1 258 3 view .LVU408
 258:quantum/rgblight.c ****     rgblight_mode(rgblight_config.mode);
 1567               		.loc 1 258 7 is_stmt 0 view .LVU409
 1568 0024 8091 0000 		lds r24,rgblight_config
 258:quantum/rgblight.c ****     rgblight_mode(rgblight_config.mode);
 1569               		.loc 1 258 6 view .LVU410
 1570 0028 80FF      		sbrs r24,0
 1571 002a 00C0      		rjmp .L76
 259:quantum/rgblight.c ****   } else {
 1572               		.loc 1 259 5 is_stmt 1 view .LVU411
 259:quantum/rgblight.c ****   } else {
 1573               		.loc 1 259 34 is_stmt 0 view .LVU412
 1574 002c 8695      		lsr r24
 259:quantum/rgblight.c ****   } else {
 1575               		.loc 1 259 5 view .LVU413
 1576 002e 8F73      		andi r24,lo8(63)
 1577 0030 0C94 0000 		jmp rgblight_mode
 1578               	.LVL102:
 1579               	.L76:
 262:quantum/rgblight.c ****     #endif
 1580               		.loc 1 262 7 is_stmt 1 view .LVU414
 1581               	.LBB37:
 1582               	.LBI37:
 420:quantum/rgblight.c ****   rgblight_timer_enabled = false;
 1583               		.loc 1 420 6 view .LVU415
 1584               	.LBB38:
 421:quantum/rgblight.c ****   dprintf("TIMER3 disabled.\n");
 1585               		.loc 1 421 3 view .LVU416
 421:quantum/rgblight.c ****   dprintf("TIMER3 disabled.\n");
 1586               		.loc 1 421 26 is_stmt 0 view .LVU417
 1587 0034 1092 0000 		sts rgblight_timer_enabled,__zero_reg__
 1588               		.loc 1 422 32 is_stmt 1 view .LVU418
 1589               	.LBE38:
 1590               	.LBE37:
 264:quantum/rgblight.c ****     rgblight_set();
 1591               		.loc 1 264 5 view .LVU419
 1592               	.LVL103:
 1593               	.LBB39:
 1594               	.LBI39:
 1595               		.file 2 "c:\\msys64\\home\\pc-office\\qmk_utils\\avr8-gnu-toolchain\\avr\\include\\util\\delay.h"
   1:c:\msys64\home\pc-office\qmk_utils\avr8-gnu-toolchain\avr\include\util\delay.h **** /* Copyright (c) 2002, Marek Michalkiewicz
   2:c:\msys64\home\pc-office\qmk_utils\avr8-gnu-toolchain\avr\include\util\delay.h ****    Copyright (c) 2004,2005,2007 Joerg Wunsch
   3:c:\msys64\home\pc-office\qmk_utils\avr8-gnu-toolchain\avr\include\util\delay.h ****    Copyright (c) 2007  Florin-Viorel Petrov
   4:c:\msys64\home\pc-office\qmk_utils\avr8-gnu-toolchain\avr\include\util\delay.h ****    All rights reserved.
   5:c:\msys64\home\pc-office\qmk_utils\avr8-gnu-toolchain\avr\include\util\delay.h **** 
   6:c:\msys64\home\pc-office\qmk_utils\avr8-gnu-toolchain\avr\include\util\delay.h ****    Redistribution and use in source and binary forms, with or without
   7:c:\msys64\home\pc-office\qmk_utils\avr8-gnu-toolchain\avr\include\util\delay.h ****    modification, are permitted provided that the following conditions are met:
   8:c:\msys64\home\pc-office\qmk_utils\avr8-gnu-toolchain\avr\include\util\delay.h **** 
   9:c:\msys64\home\pc-office\qmk_utils\avr8-gnu-toolchain\avr\include\util\delay.h ****    * Redistributions of source code must retain the above copyright
  10:c:\msys64\home\pc-office\qmk_utils\avr8-gnu-toolchain\avr\include\util\delay.h ****      notice, this list of conditions and the following disclaimer.
  11:c:\msys64\home\pc-office\qmk_utils\avr8-gnu-toolchain\avr\include\util\delay.h **** 
  12:c:\msys64\home\pc-office\qmk_utils\avr8-gnu-toolchain\avr\include\util\delay.h ****    * Redistributions in binary form must reproduce the above copyright
  13:c:\msys64\home\pc-office\qmk_utils\avr8-gnu-toolchain\avr\include\util\delay.h ****      notice, this list of conditions and the following disclaimer in
  14:c:\msys64\home\pc-office\qmk_utils\avr8-gnu-toolchain\avr\include\util\delay.h ****      the documentation and/or other materials provided with the
  15:c:\msys64\home\pc-office\qmk_utils\avr8-gnu-toolchain\avr\include\util\delay.h ****      distribution.
  16:c:\msys64\home\pc-office\qmk_utils\avr8-gnu-toolchain\avr\include\util\delay.h **** 
  17:c:\msys64\home\pc-office\qmk_utils\avr8-gnu-toolchain\avr\include\util\delay.h ****    * Neither the name of the copyright holders nor the names of
  18:c:\msys64\home\pc-office\qmk_utils\avr8-gnu-toolchain\avr\include\util\delay.h ****      contributors may be used to endorse or promote products derived
  19:c:\msys64\home\pc-office\qmk_utils\avr8-gnu-toolchain\avr\include\util\delay.h ****      from this software without specific prior written permission.
  20:c:\msys64\home\pc-office\qmk_utils\avr8-gnu-toolchain\avr\include\util\delay.h **** 
  21:c:\msys64\home\pc-office\qmk_utils\avr8-gnu-toolchain\avr\include\util\delay.h ****   THIS SOFTWARE IS PROVIDED BY THE COPYRIGHT HOLDERS AND CONTRIBUTORS "AS IS"
  22:c:\msys64\home\pc-office\qmk_utils\avr8-gnu-toolchain\avr\include\util\delay.h ****   AND ANY EXPRESS OR IMPLIED WARRANTIES, INCLUDING, BUT NOT LIMITED TO, THE
  23:c:\msys64\home\pc-office\qmk_utils\avr8-gnu-toolchain\avr\include\util\delay.h ****   IMPLIED WARRANTIES OF MERCHANTABILITY AND FITNESS FOR A PARTICULAR PURPOSE
  24:c:\msys64\home\pc-office\qmk_utils\avr8-gnu-toolchain\avr\include\util\delay.h ****   ARE DISCLAIMED. IN NO EVENT SHALL THE COPYRIGHT OWNER OR CONTRIBUTORS BE
  25:c:\msys64\home\pc-office\qmk_utils\avr8-gnu-toolchain\avr\include\util\delay.h ****   LIABLE FOR ANY DIRECT, INDIRECT, INCIDENTAL, SPECIAL, EXEMPLARY, OR
  26:c:\msys64\home\pc-office\qmk_utils\avr8-gnu-toolchain\avr\include\util\delay.h ****   CONSEQUENTIAL DAMAGES (INCLUDING, BUT NOT LIMITED TO, PROCUREMENT OF
  27:c:\msys64\home\pc-office\qmk_utils\avr8-gnu-toolchain\avr\include\util\delay.h ****   SUBSTITUTE GOODS OR SERVICES; LOSS OF USE, DATA, OR PROFITS; OR BUSINESS
  28:c:\msys64\home\pc-office\qmk_utils\avr8-gnu-toolchain\avr\include\util\delay.h ****   INTERRUPTION) HOWEVER CAUSED AND ON ANY THEORY OF LIABILITY, WHETHER IN
  29:c:\msys64\home\pc-office\qmk_utils\avr8-gnu-toolchain\avr\include\util\delay.h ****   CONTRACT, STRICT LIABILITY, OR TORT (INCLUDING NEGLIGENCE OR OTHERWISE)
  30:c:\msys64\home\pc-office\qmk_utils\avr8-gnu-toolchain\avr\include\util\delay.h ****   ARISING IN ANY WAY OUT OF THE USE OF THIS SOFTWARE, EVEN IF ADVISED OF THE
  31:c:\msys64\home\pc-office\qmk_utils\avr8-gnu-toolchain\avr\include\util\delay.h ****   POSSIBILITY OF SUCH DAMAGE. */
  32:c:\msys64\home\pc-office\qmk_utils\avr8-gnu-toolchain\avr\include\util\delay.h **** 
  33:c:\msys64\home\pc-office\qmk_utils\avr8-gnu-toolchain\avr\include\util\delay.h **** /* $Id: delay.h.in 2506 2016-02-08 10:05:45Z joerg_wunsch $ */
  34:c:\msys64\home\pc-office\qmk_utils\avr8-gnu-toolchain\avr\include\util\delay.h **** 
  35:c:\msys64\home\pc-office\qmk_utils\avr8-gnu-toolchain\avr\include\util\delay.h **** #ifndef _UTIL_DELAY_H_
  36:c:\msys64\home\pc-office\qmk_utils\avr8-gnu-toolchain\avr\include\util\delay.h **** #define _UTIL_DELAY_H_ 1
  37:c:\msys64\home\pc-office\qmk_utils\avr8-gnu-toolchain\avr\include\util\delay.h **** 
  38:c:\msys64\home\pc-office\qmk_utils\avr8-gnu-toolchain\avr\include\util\delay.h **** #ifndef __DOXYGEN__
  39:c:\msys64\home\pc-office\qmk_utils\avr8-gnu-toolchain\avr\include\util\delay.h **** #  ifndef __HAS_DELAY_CYCLES
  40:c:\msys64\home\pc-office\qmk_utils\avr8-gnu-toolchain\avr\include\util\delay.h **** #    define __HAS_DELAY_CYCLES 1
  41:c:\msys64\home\pc-office\qmk_utils\avr8-gnu-toolchain\avr\include\util\delay.h **** #  endif
  42:c:\msys64\home\pc-office\qmk_utils\avr8-gnu-toolchain\avr\include\util\delay.h **** #endif  /* __DOXYGEN__ */
  43:c:\msys64\home\pc-office\qmk_utils\avr8-gnu-toolchain\avr\include\util\delay.h **** 
  44:c:\msys64\home\pc-office\qmk_utils\avr8-gnu-toolchain\avr\include\util\delay.h **** #include <inttypes.h>
  45:c:\msys64\home\pc-office\qmk_utils\avr8-gnu-toolchain\avr\include\util\delay.h **** #include <util/delay_basic.h>
  46:c:\msys64\home\pc-office\qmk_utils\avr8-gnu-toolchain\avr\include\util\delay.h **** #include <math.h>
  47:c:\msys64\home\pc-office\qmk_utils\avr8-gnu-toolchain\avr\include\util\delay.h **** 
  48:c:\msys64\home\pc-office\qmk_utils\avr8-gnu-toolchain\avr\include\util\delay.h **** /** \file */
  49:c:\msys64\home\pc-office\qmk_utils\avr8-gnu-toolchain\avr\include\util\delay.h **** /** \defgroup util_delay <util/delay.h>: Convenience functions for busy-wait delay loops
  50:c:\msys64\home\pc-office\qmk_utils\avr8-gnu-toolchain\avr\include\util\delay.h ****     \code
  51:c:\msys64\home\pc-office\qmk_utils\avr8-gnu-toolchain\avr\include\util\delay.h ****     #define F_CPU 1000000UL  // 1 MHz
  52:c:\msys64\home\pc-office\qmk_utils\avr8-gnu-toolchain\avr\include\util\delay.h ****     //#define F_CPU 14.7456E6
  53:c:\msys64\home\pc-office\qmk_utils\avr8-gnu-toolchain\avr\include\util\delay.h ****     #include <util/delay.h>
  54:c:\msys64\home\pc-office\qmk_utils\avr8-gnu-toolchain\avr\include\util\delay.h ****     \endcode
  55:c:\msys64\home\pc-office\qmk_utils\avr8-gnu-toolchain\avr\include\util\delay.h **** 
  56:c:\msys64\home\pc-office\qmk_utils\avr8-gnu-toolchain\avr\include\util\delay.h ****     \note As an alternative method, it is possible to pass the
  57:c:\msys64\home\pc-office\qmk_utils\avr8-gnu-toolchain\avr\include\util\delay.h ****     F_CPU macro down to the compiler from the Makefile.
  58:c:\msys64\home\pc-office\qmk_utils\avr8-gnu-toolchain\avr\include\util\delay.h ****     Obviously, in that case, no \c \#define statement should be
  59:c:\msys64\home\pc-office\qmk_utils\avr8-gnu-toolchain\avr\include\util\delay.h ****     used.
  60:c:\msys64\home\pc-office\qmk_utils\avr8-gnu-toolchain\avr\include\util\delay.h **** 
  61:c:\msys64\home\pc-office\qmk_utils\avr8-gnu-toolchain\avr\include\util\delay.h ****     The functions in this header file are wrappers around the basic
  62:c:\msys64\home\pc-office\qmk_utils\avr8-gnu-toolchain\avr\include\util\delay.h ****     busy-wait functions from <util/delay_basic.h>.  They are meant as
  63:c:\msys64\home\pc-office\qmk_utils\avr8-gnu-toolchain\avr\include\util\delay.h ****     convenience functions where actual time values can be specified
  64:c:\msys64\home\pc-office\qmk_utils\avr8-gnu-toolchain\avr\include\util\delay.h ****     rather than a number of cycles to wait for.  The idea behind is
  65:c:\msys64\home\pc-office\qmk_utils\avr8-gnu-toolchain\avr\include\util\delay.h ****     that compile-time constant expressions will be eliminated by
  66:c:\msys64\home\pc-office\qmk_utils\avr8-gnu-toolchain\avr\include\util\delay.h ****     compiler optimization so floating-point expressions can be used
  67:c:\msys64\home\pc-office\qmk_utils\avr8-gnu-toolchain\avr\include\util\delay.h ****     to calculate the number of delay cycles needed based on the CPU
  68:c:\msys64\home\pc-office\qmk_utils\avr8-gnu-toolchain\avr\include\util\delay.h ****     frequency passed by the macro F_CPU.
  69:c:\msys64\home\pc-office\qmk_utils\avr8-gnu-toolchain\avr\include\util\delay.h **** 
  70:c:\msys64\home\pc-office\qmk_utils\avr8-gnu-toolchain\avr\include\util\delay.h ****     \note In order for these functions to work as intended, compiler
  71:c:\msys64\home\pc-office\qmk_utils\avr8-gnu-toolchain\avr\include\util\delay.h ****     optimizations <em>must</em> be enabled, and the delay time
  72:c:\msys64\home\pc-office\qmk_utils\avr8-gnu-toolchain\avr\include\util\delay.h ****     <em>must</em> be an expression that is a known constant at
  73:c:\msys64\home\pc-office\qmk_utils\avr8-gnu-toolchain\avr\include\util\delay.h ****     compile-time.  If these requirements are not met, the resulting
  74:c:\msys64\home\pc-office\qmk_utils\avr8-gnu-toolchain\avr\include\util\delay.h ****     delay will be much longer (and basically unpredictable), and
  75:c:\msys64\home\pc-office\qmk_utils\avr8-gnu-toolchain\avr\include\util\delay.h ****     applications that otherwise do not use floating-point calculations
  76:c:\msys64\home\pc-office\qmk_utils\avr8-gnu-toolchain\avr\include\util\delay.h ****     will experience severe code bloat by the floating-point library
  77:c:\msys64\home\pc-office\qmk_utils\avr8-gnu-toolchain\avr\include\util\delay.h ****     routines linked into the application.
  78:c:\msys64\home\pc-office\qmk_utils\avr8-gnu-toolchain\avr\include\util\delay.h **** 
  79:c:\msys64\home\pc-office\qmk_utils\avr8-gnu-toolchain\avr\include\util\delay.h ****     The functions available allow the specification of microsecond, and
  80:c:\msys64\home\pc-office\qmk_utils\avr8-gnu-toolchain\avr\include\util\delay.h ****     millisecond delays directly, using the application-supplied macro
  81:c:\msys64\home\pc-office\qmk_utils\avr8-gnu-toolchain\avr\include\util\delay.h ****     F_CPU as the CPU clock frequency (in Hertz).
  82:c:\msys64\home\pc-office\qmk_utils\avr8-gnu-toolchain\avr\include\util\delay.h **** 
  83:c:\msys64\home\pc-office\qmk_utils\avr8-gnu-toolchain\avr\include\util\delay.h **** */
  84:c:\msys64\home\pc-office\qmk_utils\avr8-gnu-toolchain\avr\include\util\delay.h **** 
  85:c:\msys64\home\pc-office\qmk_utils\avr8-gnu-toolchain\avr\include\util\delay.h **** #if !defined(__DOXYGEN__)
  86:c:\msys64\home\pc-office\qmk_utils\avr8-gnu-toolchain\avr\include\util\delay.h **** static __inline__ void _delay_us(double __us) __attribute__((__always_inline__));
  87:c:\msys64\home\pc-office\qmk_utils\avr8-gnu-toolchain\avr\include\util\delay.h **** static __inline__ void _delay_ms(double __ms) __attribute__((__always_inline__));
  88:c:\msys64\home\pc-office\qmk_utils\avr8-gnu-toolchain\avr\include\util\delay.h **** #endif
  89:c:\msys64\home\pc-office\qmk_utils\avr8-gnu-toolchain\avr\include\util\delay.h **** 
  90:c:\msys64\home\pc-office\qmk_utils\avr8-gnu-toolchain\avr\include\util\delay.h **** #ifndef F_CPU
  91:c:\msys64\home\pc-office\qmk_utils\avr8-gnu-toolchain\avr\include\util\delay.h **** /* prevent compiler error by supplying a default */
  92:c:\msys64\home\pc-office\qmk_utils\avr8-gnu-toolchain\avr\include\util\delay.h **** # warning "F_CPU not defined for <util/delay.h>"
  93:c:\msys64\home\pc-office\qmk_utils\avr8-gnu-toolchain\avr\include\util\delay.h **** /** \ingroup util_delay
  94:c:\msys64\home\pc-office\qmk_utils\avr8-gnu-toolchain\avr\include\util\delay.h ****     \def F_CPU
  95:c:\msys64\home\pc-office\qmk_utils\avr8-gnu-toolchain\avr\include\util\delay.h ****     \brief CPU frequency in Hz
  96:c:\msys64\home\pc-office\qmk_utils\avr8-gnu-toolchain\avr\include\util\delay.h **** 
  97:c:\msys64\home\pc-office\qmk_utils\avr8-gnu-toolchain\avr\include\util\delay.h ****     The macro F_CPU specifies the CPU frequency to be considered by
  98:c:\msys64\home\pc-office\qmk_utils\avr8-gnu-toolchain\avr\include\util\delay.h ****     the delay macros.  This macro is normally supplied by the
  99:c:\msys64\home\pc-office\qmk_utils\avr8-gnu-toolchain\avr\include\util\delay.h ****     environment (e.g. from within a project header, or the project's
 100:c:\msys64\home\pc-office\qmk_utils\avr8-gnu-toolchain\avr\include\util\delay.h ****     Makefile).  The value 1 MHz here is only provided as a "vanilla"
 101:c:\msys64\home\pc-office\qmk_utils\avr8-gnu-toolchain\avr\include\util\delay.h ****     fallback if no such user-provided definition could be found.
 102:c:\msys64\home\pc-office\qmk_utils\avr8-gnu-toolchain\avr\include\util\delay.h **** 
 103:c:\msys64\home\pc-office\qmk_utils\avr8-gnu-toolchain\avr\include\util\delay.h ****     In terms of the delay functions, the CPU frequency can be given as
 104:c:\msys64\home\pc-office\qmk_utils\avr8-gnu-toolchain\avr\include\util\delay.h ****     a floating-point constant (e.g. 3.6864E6 for 3.6864 MHz).
 105:c:\msys64\home\pc-office\qmk_utils\avr8-gnu-toolchain\avr\include\util\delay.h ****     However, the macros in <util/setbaud.h> require it to be an
 106:c:\msys64\home\pc-office\qmk_utils\avr8-gnu-toolchain\avr\include\util\delay.h ****     integer value.
 107:c:\msys64\home\pc-office\qmk_utils\avr8-gnu-toolchain\avr\include\util\delay.h ****  */
 108:c:\msys64\home\pc-office\qmk_utils\avr8-gnu-toolchain\avr\include\util\delay.h **** # define F_CPU 1000000UL
 109:c:\msys64\home\pc-office\qmk_utils\avr8-gnu-toolchain\avr\include\util\delay.h **** #endif
 110:c:\msys64\home\pc-office\qmk_utils\avr8-gnu-toolchain\avr\include\util\delay.h **** 
 111:c:\msys64\home\pc-office\qmk_utils\avr8-gnu-toolchain\avr\include\util\delay.h **** #ifndef __OPTIMIZE__
 112:c:\msys64\home\pc-office\qmk_utils\avr8-gnu-toolchain\avr\include\util\delay.h **** # warning "Compiler optimizations disabled; functions from <util/delay.h> won't work as designed"
 113:c:\msys64\home\pc-office\qmk_utils\avr8-gnu-toolchain\avr\include\util\delay.h **** #endif
 114:c:\msys64\home\pc-office\qmk_utils\avr8-gnu-toolchain\avr\include\util\delay.h **** 
 115:c:\msys64\home\pc-office\qmk_utils\avr8-gnu-toolchain\avr\include\util\delay.h **** #if __HAS_DELAY_CYCLES && defined(__OPTIMIZE__) && \
 116:c:\msys64\home\pc-office\qmk_utils\avr8-gnu-toolchain\avr\include\util\delay.h ****   !defined(__DELAY_BACKWARD_COMPATIBLE__) &&	   \
 117:c:\msys64\home\pc-office\qmk_utils\avr8-gnu-toolchain\avr\include\util\delay.h ****   __STDC_HOSTED__
 118:c:\msys64\home\pc-office\qmk_utils\avr8-gnu-toolchain\avr\include\util\delay.h **** #  include <math.h>
 119:c:\msys64\home\pc-office\qmk_utils\avr8-gnu-toolchain\avr\include\util\delay.h **** #endif
 120:c:\msys64\home\pc-office\qmk_utils\avr8-gnu-toolchain\avr\include\util\delay.h **** 
 121:c:\msys64\home\pc-office\qmk_utils\avr8-gnu-toolchain\avr\include\util\delay.h **** /**
 122:c:\msys64\home\pc-office\qmk_utils\avr8-gnu-toolchain\avr\include\util\delay.h ****    \ingroup util_delay
 123:c:\msys64\home\pc-office\qmk_utils\avr8-gnu-toolchain\avr\include\util\delay.h **** 
 124:c:\msys64\home\pc-office\qmk_utils\avr8-gnu-toolchain\avr\include\util\delay.h ****    Perform a delay of \c __ms milliseconds, using _delay_loop_2().
 125:c:\msys64\home\pc-office\qmk_utils\avr8-gnu-toolchain\avr\include\util\delay.h **** 
 126:c:\msys64\home\pc-office\qmk_utils\avr8-gnu-toolchain\avr\include\util\delay.h ****    The macro F_CPU is supposed to be defined to a
 127:c:\msys64\home\pc-office\qmk_utils\avr8-gnu-toolchain\avr\include\util\delay.h ****    constant defining the CPU clock frequency (in Hertz).
 128:c:\msys64\home\pc-office\qmk_utils\avr8-gnu-toolchain\avr\include\util\delay.h **** 
 129:c:\msys64\home\pc-office\qmk_utils\avr8-gnu-toolchain\avr\include\util\delay.h ****    The maximal possible delay is 262.14 ms / F_CPU in MHz.
 130:c:\msys64\home\pc-office\qmk_utils\avr8-gnu-toolchain\avr\include\util\delay.h **** 
 131:c:\msys64\home\pc-office\qmk_utils\avr8-gnu-toolchain\avr\include\util\delay.h ****    When the user request delay which exceed the maximum possible one,
 132:c:\msys64\home\pc-office\qmk_utils\avr8-gnu-toolchain\avr\include\util\delay.h ****    _delay_ms() provides a decreased resolution functionality. In this
 133:c:\msys64\home\pc-office\qmk_utils\avr8-gnu-toolchain\avr\include\util\delay.h ****    mode _delay_ms() will work with a resolution of 1/10 ms, providing
 134:c:\msys64\home\pc-office\qmk_utils\avr8-gnu-toolchain\avr\include\util\delay.h ****    delays up to 6.5535 seconds (independent from CPU frequency).  The
 135:c:\msys64\home\pc-office\qmk_utils\avr8-gnu-toolchain\avr\include\util\delay.h ****    user will not be informed about decreased resolution.
 136:c:\msys64\home\pc-office\qmk_utils\avr8-gnu-toolchain\avr\include\util\delay.h **** 
 137:c:\msys64\home\pc-office\qmk_utils\avr8-gnu-toolchain\avr\include\util\delay.h ****    If the avr-gcc toolchain has __builtin_avr_delay_cycles()
 138:c:\msys64\home\pc-office\qmk_utils\avr8-gnu-toolchain\avr\include\util\delay.h ****    support, maximal possible delay is 4294967.295 ms/ F_CPU in MHz. For
 139:c:\msys64\home\pc-office\qmk_utils\avr8-gnu-toolchain\avr\include\util\delay.h ****    values greater than the maximal possible delay, overflows results in
 140:c:\msys64\home\pc-office\qmk_utils\avr8-gnu-toolchain\avr\include\util\delay.h ****    no delay i.e., 0ms.
 141:c:\msys64\home\pc-office\qmk_utils\avr8-gnu-toolchain\avr\include\util\delay.h **** 
 142:c:\msys64\home\pc-office\qmk_utils\avr8-gnu-toolchain\avr\include\util\delay.h ****    Conversion of \c __ms into clock cycles may not always result in
 143:c:\msys64\home\pc-office\qmk_utils\avr8-gnu-toolchain\avr\include\util\delay.h ****    integer.  By default, the clock cycles rounded up to next
 144:c:\msys64\home\pc-office\qmk_utils\avr8-gnu-toolchain\avr\include\util\delay.h ****    integer. This ensures that the user gets at least \c __ms
 145:c:\msys64\home\pc-office\qmk_utils\avr8-gnu-toolchain\avr\include\util\delay.h ****    microseconds of delay.
 146:c:\msys64\home\pc-office\qmk_utils\avr8-gnu-toolchain\avr\include\util\delay.h **** 
 147:c:\msys64\home\pc-office\qmk_utils\avr8-gnu-toolchain\avr\include\util\delay.h ****    Alternatively, by defining the macro \c __DELAY_ROUND_DOWN__, or
 148:c:\msys64\home\pc-office\qmk_utils\avr8-gnu-toolchain\avr\include\util\delay.h ****    \c __DELAY_ROUND_CLOSEST__, before including this header file, the
 149:c:\msys64\home\pc-office\qmk_utils\avr8-gnu-toolchain\avr\include\util\delay.h ****    algorithm can be made to round down, or round to closest integer,
 150:c:\msys64\home\pc-office\qmk_utils\avr8-gnu-toolchain\avr\include\util\delay.h ****    respectively.
 151:c:\msys64\home\pc-office\qmk_utils\avr8-gnu-toolchain\avr\include\util\delay.h **** 
 152:c:\msys64\home\pc-office\qmk_utils\avr8-gnu-toolchain\avr\include\util\delay.h ****    \note
 153:c:\msys64\home\pc-office\qmk_utils\avr8-gnu-toolchain\avr\include\util\delay.h **** 
 154:c:\msys64\home\pc-office\qmk_utils\avr8-gnu-toolchain\avr\include\util\delay.h ****    The implementation of _delay_ms() based on
 155:c:\msys64\home\pc-office\qmk_utils\avr8-gnu-toolchain\avr\include\util\delay.h ****    __builtin_avr_delay_cycles() is not backward compatible with older
 156:c:\msys64\home\pc-office\qmk_utils\avr8-gnu-toolchain\avr\include\util\delay.h ****    implementations.  In order to get functionality backward compatible
 157:c:\msys64\home\pc-office\qmk_utils\avr8-gnu-toolchain\avr\include\util\delay.h ****    with previous versions, the macro \c "__DELAY_BACKWARD_COMPATIBLE__"
 158:c:\msys64\home\pc-office\qmk_utils\avr8-gnu-toolchain\avr\include\util\delay.h ****    must be defined before including this header file. Also, the
 159:c:\msys64\home\pc-office\qmk_utils\avr8-gnu-toolchain\avr\include\util\delay.h ****    backward compatible algorithm will be chosen if the code is
 160:c:\msys64\home\pc-office\qmk_utils\avr8-gnu-toolchain\avr\include\util\delay.h ****    compiled in a <em>freestanding environment</em> (GCC option
 161:c:\msys64\home\pc-office\qmk_utils\avr8-gnu-toolchain\avr\include\util\delay.h ****    \c -ffreestanding), as the math functions required for rounding are
 162:c:\msys64\home\pc-office\qmk_utils\avr8-gnu-toolchain\avr\include\util\delay.h ****    not available to the compiler then.
 163:c:\msys64\home\pc-office\qmk_utils\avr8-gnu-toolchain\avr\include\util\delay.h **** 
 164:c:\msys64\home\pc-office\qmk_utils\avr8-gnu-toolchain\avr\include\util\delay.h ****  */
 165:c:\msys64\home\pc-office\qmk_utils\avr8-gnu-toolchain\avr\include\util\delay.h **** void
 166:c:\msys64\home\pc-office\qmk_utils\avr8-gnu-toolchain\avr\include\util\delay.h **** _delay_ms(double __ms)
 1596               		.loc 2 166 1 view .LVU420
 1597               	.LBB40:
 167:c:\msys64\home\pc-office\qmk_utils\avr8-gnu-toolchain\avr\include\util\delay.h **** {
 168:c:\msys64\home\pc-office\qmk_utils\avr8-gnu-toolchain\avr\include\util\delay.h **** 	double __tmp ;
 1598               		.loc 2 168 2 view .LVU421
 169:c:\msys64\home\pc-office\qmk_utils\avr8-gnu-toolchain\avr\include\util\delay.h **** #if __HAS_DELAY_CYCLES && defined(__OPTIMIZE__) && \
 170:c:\msys64\home\pc-office\qmk_utils\avr8-gnu-toolchain\avr\include\util\delay.h ****   !defined(__DELAY_BACKWARD_COMPATIBLE__) &&	   \
 171:c:\msys64\home\pc-office\qmk_utils\avr8-gnu-toolchain\avr\include\util\delay.h ****   __STDC_HOSTED__
 172:c:\msys64\home\pc-office\qmk_utils\avr8-gnu-toolchain\avr\include\util\delay.h **** 	uint32_t __ticks_dc;
 1599               		.loc 2 172 2 view .LVU422
 173:c:\msys64\home\pc-office\qmk_utils\avr8-gnu-toolchain\avr\include\util\delay.h **** 	extern void __builtin_avr_delay_cycles(unsigned long);
 1600               		.loc 2 173 2 view .LVU423
 174:c:\msys64\home\pc-office\qmk_utils\avr8-gnu-toolchain\avr\include\util\delay.h **** 	__tmp = ((F_CPU) / 1e3) * __ms;
 1601               		.loc 2 174 2 view .LVU424
 175:c:\msys64\home\pc-office\qmk_utils\avr8-gnu-toolchain\avr\include\util\delay.h **** 
 176:c:\msys64\home\pc-office\qmk_utils\avr8-gnu-toolchain\avr\include\util\delay.h **** 	#if defined(__DELAY_ROUND_DOWN__)
 177:c:\msys64\home\pc-office\qmk_utils\avr8-gnu-toolchain\avr\include\util\delay.h **** 		__ticks_dc = (uint32_t)fabs(__tmp);
 178:c:\msys64\home\pc-office\qmk_utils\avr8-gnu-toolchain\avr\include\util\delay.h **** 
 179:c:\msys64\home\pc-office\qmk_utils\avr8-gnu-toolchain\avr\include\util\delay.h **** 	#elif defined(__DELAY_ROUND_CLOSEST__)
 180:c:\msys64\home\pc-office\qmk_utils\avr8-gnu-toolchain\avr\include\util\delay.h **** 		__ticks_dc = (uint32_t)(fabs(__tmp)+0.5);
 181:c:\msys64\home\pc-office\qmk_utils\avr8-gnu-toolchain\avr\include\util\delay.h **** 
 182:c:\msys64\home\pc-office\qmk_utils\avr8-gnu-toolchain\avr\include\util\delay.h **** 	#else
 183:c:\msys64\home\pc-office\qmk_utils\avr8-gnu-toolchain\avr\include\util\delay.h **** 		//round up by default
 184:c:\msys64\home\pc-office\qmk_utils\avr8-gnu-toolchain\avr\include\util\delay.h **** 		__ticks_dc = (uint32_t)(ceil(fabs(__tmp)));
 1602               		.loc 2 184 3 view .LVU425
 185:c:\msys64\home\pc-office\qmk_utils\avr8-gnu-toolchain\avr\include\util\delay.h **** 	#endif
 186:c:\msys64\home\pc-office\qmk_utils\avr8-gnu-toolchain\avr\include\util\delay.h **** 
 187:c:\msys64\home\pc-office\qmk_utils\avr8-gnu-toolchain\avr\include\util\delay.h **** 	__builtin_avr_delay_cycles(__ticks_dc);
 1603               		.loc 2 187 2 view .LVU426
 1604 0038 2FEF      		ldi r18,lo8(159999)
 1605 003a 80E7      		ldi r24,hi8(159999)
 1606 003c 92E0      		ldi r25,hlo8(159999)
 1607 003e 2150      	1:	subi r18,1
 1608 0040 8040      		sbci r24,0
 1609 0042 9040      		sbci r25,0
 1610 0044 01F4      		brne 1b
 1611 0046 00C0      		rjmp .
 1612 0048 0000      		nop
 1613               	.LVL104:
 1614               		.loc 2 187 2 is_stmt 0 view .LVU427
 1615               	.LBE40:
 1616               	.LBE39:
 265:quantum/rgblight.c ****   }
 1617               		.loc 1 265 5 is_stmt 1 view .LVU428
 1618 004a 0C94 0000 		jmp rgblight_set
 1619               	.LVL105:
 1620               		.cfi_endproc
 1621               	.LFE19:
 1623               		.section	.text.rgblight_timer_init,"ax",@progbits
 1624               	.global	rgblight_timer_init
 1626               	rgblight_timer_init:
 1627               	.LFB31:
 398:quantum/rgblight.c ****   // static uint8_t rgblight_timer_is_init = 0;
 1628               		.loc 1 398 32 view -0
 1629               		.cfi_startproc
 1630               	/* prologue: function */
 1631               	/* frame size = 0 */
 1632               	/* stack size = 0 */
 1633               	.L__stack_usage = 0
 414:quantum/rgblight.c **** }
 1634               		.loc 1 414 3 view .LVU430
 414:quantum/rgblight.c **** }
 1635               		.loc 1 414 26 is_stmt 0 view .LVU431
 1636 0000 81E0      		ldi r24,lo8(1)
 1637 0002 8093 0000 		sts rgblight_timer_enabled,r24
 1638               	/* epilogue start */
 415:quantum/rgblight.c **** void rgblight_timer_enable(void) {
 1639               		.loc 1 415 1 view .LVU432
 1640 0006 0895      		ret
 1641               		.cfi_endproc
 1642               	.LFE31:
 1644               		.section	.text.rgblight_timer_enable,"ax",@progbits
 1645               	.global	rgblight_timer_enable
 1647               	rgblight_timer_enable:
 1648               	.LFB44:
 1649               		.cfi_startproc
 1650               	/* prologue: function */
 1651               	/* frame size = 0 */
 1652               	/* stack size = 0 */
 1653               	.L__stack_usage = 0
 1654 0000 81E0      		ldi r24,lo8(1)
 1655 0002 8093 0000 		sts rgblight_timer_enabled,r24
 1656               	/* epilogue start */
 1657 0006 0895      		ret
 1658               		.cfi_endproc
 1659               	.LFE44:
 1661               		.section	.text.rgblight_timer_disable,"ax",@progbits
 1662               	.global	rgblight_timer_disable
 1664               	rgblight_timer_disable:
 1665               	.LFB33:
 420:quantum/rgblight.c ****   rgblight_timer_enabled = false;
 1666               		.loc 1 420 35 is_stmt 1 view -0
 1667               		.cfi_startproc
 1668               	/* prologue: function */
 1669               	/* frame size = 0 */
 1670               	/* stack size = 0 */
 1671               	.L__stack_usage = 0
 421:quantum/rgblight.c ****   dprintf("TIMER3 disabled.\n");
 1672               		.loc 1 421 3 view .LVU434
 421:quantum/rgblight.c ****   dprintf("TIMER3 disabled.\n");
 1673               		.loc 1 421 26 is_stmt 0 view .LVU435
 1674 0000 1092 0000 		sts rgblight_timer_enabled,__zero_reg__
 1675               		.loc 1 422 32 is_stmt 1 view .LVU436
 1676               	/* epilogue start */
 423:quantum/rgblight.c **** }
 1677               		.loc 1 423 1 is_stmt 0 view .LVU437
 1678 0004 0895      		ret
 1679               		.cfi_endproc
 1680               	.LFE33:
 1682               		.section	.text.rgblight_timer_toggle,"ax",@progbits
 1683               	.global	rgblight_timer_toggle
 1685               	rgblight_timer_toggle:
 1686               	.LFB46:
 1687               		.cfi_startproc
 1688               	/* prologue: function */
 1689               	/* frame size = 0 */
 1690               	/* stack size = 0 */
 1691               	.L__stack_usage = 0
 1692 0000 1092 0000 		sts rgblight_timer_enabled,__zero_reg__
 1693               	/* epilogue start */
 1694 0004 0895      		ret
 1695               		.cfi_endproc
 1696               	.LFE46:
 1698               		.section	.text.rgblight_show_solid_color,"ax",@progbits
 1699               	.global	rgblight_show_solid_color
 1701               	rgblight_show_solid_color:
 1702               	.LVL106:
 1703               	.LFB35:
 424:quantum/rgblight.c **** void rgblight_timer_toggle(void) {
 425:quantum/rgblight.c ****   rgblight_timer_enabled ^= rgblight_timer_enabled;
 426:quantum/rgblight.c ****   dprintf("TIMER3 toggled.\n");
 427:quantum/rgblight.c **** }
 428:quantum/rgblight.c **** 
 429:quantum/rgblight.c **** void rgblight_show_solid_color(uint8_t r, uint8_t g, uint8_t b) {
 1704               		.loc 1 429 65 is_stmt 1 view -0
 1705               		.cfi_startproc
 1706               		.loc 1 429 65 is_stmt 0 view .LVU439
 1707 0000 1F93      		push r17
 1708               	.LCFI22:
 1709               		.cfi_def_cfa_offset 3
 1710               		.cfi_offset 17, -2
 1711 0002 CF93      		push r28
 1712               	.LCFI23:
 1713               		.cfi_def_cfa_offset 4
 1714               		.cfi_offset 28, -3
 1715 0004 DF93      		push r29
 1716               	.LCFI24:
 1717               		.cfi_def_cfa_offset 5
 1718               		.cfi_offset 29, -4
 1719               	/* prologue: function */
 1720               	/* frame size = 0 */
 1721               	/* stack size = 3 */
 1722               	.L__stack_usage = 3
 1723 0006 C82F      		mov r28,r24
 1724 0008 D62F      		mov r29,r22
 1725 000a 142F      		mov r17,r20
 430:quantum/rgblight.c ****   rgblight_enable();
 1726               		.loc 1 430 3 is_stmt 1 view .LVU440
 1727 000c 0E94 0000 		call rgblight_enable
 1728               	.LVL107:
 431:quantum/rgblight.c ****   rgblight_mode(1);
 1729               		.loc 1 431 3 view .LVU441
 1730 0010 81E0      		ldi r24,lo8(1)
 1731 0012 0E94 0000 		call rgblight_mode
 1732               	.LVL108:
 432:quantum/rgblight.c ****   rgblight_setrgb(r, g, b);
 1733               		.loc 1 432 3 view .LVU442
 1734 0016 412F      		mov r20,r17
 1735 0018 6D2F      		mov r22,r29
 1736 001a 8C2F      		mov r24,r28
 1737               	/* epilogue start */
 433:quantum/rgblight.c **** }
 1738               		.loc 1 433 1 is_stmt 0 view .LVU443
 1739 001c DF91      		pop r29
 1740               	.LVL109:
 1741               		.loc 1 433 1 view .LVU444
 1742 001e CF91      		pop r28
 1743               	.LVL110:
 1744               		.loc 1 433 1 view .LVU445
 1745 0020 1F91      		pop r17
 1746               	.LVL111:
 432:quantum/rgblight.c ****   rgblight_setrgb(r, g, b);
 1747               		.loc 1 432 3 view .LVU446
 1748 0022 0C94 0000 		jmp rgblight_setrgb
 1749               	.LVL112:
 432:quantum/rgblight.c ****   rgblight_setrgb(r, g, b);
 1750               		.loc 1 432 3 view .LVU447
 1751               		.cfi_endproc
 1752               	.LFE35:
 1754               		.section	.text.rgblight_effect_breathing,"ax",@progbits
 1755               	.global	rgblight_effect_breathing
 1757               	rgblight_effect_breathing:
 1758               	.LVL113:
 1759               	.LFB37:
 434:quantum/rgblight.c **** 
 435:quantum/rgblight.c **** void rgblight_task(void) {
 436:quantum/rgblight.c ****   if (rgblight_timer_enabled) {
 437:quantum/rgblight.c ****     // mode = 1, static light, do nothing here
 438:quantum/rgblight.c ****     if (rgblight_config.mode >= 2 && rgblight_config.mode <= 5) {
 439:quantum/rgblight.c ****       // mode = 2 to 5, breathing mode
 440:quantum/rgblight.c ****       rgblight_effect_breathing(rgblight_config.mode - 2);
 441:quantum/rgblight.c ****     } else if (rgblight_config.mode >= 6 && rgblight_config.mode <= 8) {
 442:quantum/rgblight.c ****       // mode = 6 to 8, rainbow mood mod
 443:quantum/rgblight.c ****       rgblight_effect_rainbow_mood(rgblight_config.mode - 6);
 444:quantum/rgblight.c ****     } else if (rgblight_config.mode >= 9 && rgblight_config.mode <= 14) {
 445:quantum/rgblight.c ****       // mode = 9 to 14, rainbow swirl mode
 446:quantum/rgblight.c ****       rgblight_effect_rainbow_swirl(rgblight_config.mode - 9);
 447:quantum/rgblight.c ****     } else if (rgblight_config.mode >= 15 && rgblight_config.mode <= 20) {
 448:quantum/rgblight.c ****       // mode = 15 to 20, snake mode
 449:quantum/rgblight.c ****       rgblight_effect_snake(rgblight_config.mode - 15);
 450:quantum/rgblight.c ****     } else if (rgblight_config.mode >= 21 && rgblight_config.mode <= 23) {
 451:quantum/rgblight.c ****       // mode = 21 to 23, knight mode
 452:quantum/rgblight.c ****       rgblight_effect_knight(rgblight_config.mode - 21);
 453:quantum/rgblight.c ****     } else {
 454:quantum/rgblight.c ****       // mode = 24, christmas mode
 455:quantum/rgblight.c ****       rgblight_effect_christmas();
 456:quantum/rgblight.c ****     }
 457:quantum/rgblight.c ****   }
 458:quantum/rgblight.c **** }
 459:quantum/rgblight.c **** 
 460:quantum/rgblight.c **** // Effects
 461:quantum/rgblight.c **** void rgblight_effect_breathing(uint8_t interval) {
 1760               		.loc 1 461 50 is_stmt 1 view -0
 1761               		.cfi_startproc
 1762               		.loc 1 461 50 is_stmt 0 view .LVU449
 1763 0000 CF93      		push r28
 1764               	.LCFI25:
 1765               		.cfi_def_cfa_offset 3
 1766               		.cfi_offset 28, -2
 1767               	/* prologue: function */
 1768               	/* frame size = 0 */
 1769               	/* stack size = 1 */
 1770               	.L__stack_usage = 1
 1771 0002 C82F      		mov r28,r24
 462:quantum/rgblight.c ****   static uint8_t pos = 0;
 1772               		.loc 1 462 3 is_stmt 1 view .LVU450
 463:quantum/rgblight.c ****   static uint16_t last_timer = 0;
 1773               		.loc 1 463 3 view .LVU451
 464:quantum/rgblight.c **** 
 465:quantum/rgblight.c ****   if (timer_elapsed(last_timer) < pgm_read_byte(&RGBLED_BREATHING_INTERVALS[interval])) {
 1774               		.loc 1 465 3 view .LVU452
 1775               		.loc 1 465 7 is_stmt 0 view .LVU453
 1776 0004 8091 0000 		lds r24,last_timer.2227
 1777 0008 9091 0000 		lds r25,last_timer.2227+1
 1778               	.LVL114:
 1779               		.loc 1 465 7 view .LVU454
 1780 000c 0E94 0000 		call timer_elapsed
 1781               	.LVL115:
 1782               	.LBB41:
 1783               		.loc 1 465 35 is_stmt 1 view .LVU455
 1784               		.loc 1 465 35 view .LVU456
 1785               		.loc 1 465 35 view .LVU457
 1786 0010 EC2F      		mov r30,r28
 1787 0012 F0E0      		ldi r31,0
 1788 0014 E050      		subi r30,lo8(-(RGBLED_BREATHING_INTERVALS))
 1789 0016 F040      		sbci r31,hi8(-(RGBLED_BREATHING_INTERVALS))
 1790               	/* #APP */
 1791               	 ;  465 "quantum/rgblight.c" 1
 1792 0018 E491      		lpm r30, Z
 1793               		
 1794               	 ;  0 "" 2
 1795               	.LVL116:
 1796               		.loc 1 465 35 view .LVU458
 1797               	/* #NOAPP */
 1798               	.LBE41:
 1799               		.loc 1 465 6 is_stmt 0 view .LVU459
 1800 001a E817      		cp r30,r24
 1801 001c 1906      		cpc __zero_reg__,r25
 1802 001e 01F0      		breq .+2
 1803 0020 00F4      		brsh .L82
 466:quantum/rgblight.c ****     return;
 467:quantum/rgblight.c ****   }
 468:quantum/rgblight.c ****   last_timer = timer_read();
 1804               		.loc 1 468 3 is_stmt 1 view .LVU460
 1805               		.loc 1 468 16 is_stmt 0 view .LVU461
 1806 0022 0E94 0000 		call timer_read
 1807               	.LVL117:
 1808               		.loc 1 468 14 view .LVU462
 1809 0026 9093 0000 		sts last_timer.2227+1,r25
 1810 002a 8093 0000 		sts last_timer.2227,r24
 469:quantum/rgblight.c **** 
 470:quantum/rgblight.c ****   rgblight_sethsv_noeeprom(rgblight_config.hue, rgblight_config.sat, pgm_read_byte(&RGBLED_BREATHIN
 1811               		.loc 1 470 3 is_stmt 1 view .LVU463
 1812               	.LBB42:
 1813               		.loc 1 470 70 view .LVU464
 1814               	.LVL118:
 1815               		.loc 1 470 70 view .LVU465
 1816               		.loc 1 470 70 view .LVU466
 1817 002e E091 0000 		lds r30,pos.2226
 1818 0032 F0E0      		ldi r31,0
 1819 0034 E050      		subi r30,lo8(-(RGBLED_BREATHING_TABLE))
 1820 0036 F040      		sbci r31,hi8(-(RGBLED_BREATHING_TABLE))
 1821               	/* #APP */
 1822               	 ;  470 "quantum/rgblight.c" 1
 1823 0038 4491      		lpm r20, Z
 1824               		
 1825               	 ;  0 "" 2
 1826               	.LVL119:
 1827               		.loc 1 470 70 view .LVU467
 1828               	/* #NOAPP */
 1829               	.LBE42:
 1830               		.loc 1 470 43 is_stmt 0 view .LVU468
 1831 003a 8091 0000 		lds r24,rgblight_config
 1832 003e 881F      		rol r24
 1833 0040 8827      		clr r24
 1834 0042 881F      		rol r24
 1835 0044 9091 0000 		lds r25,rgblight_config+1
 1836 0048 292F      		mov r18,r25
 1837 004a 220F      		lsl r18
 1838 004c 97FB      		bst r25,7
 1839 004e 9927      		clr r25
 1840 0050 90F9      		bld r25,0
 1841               		.loc 1 470 3 view .LVU469
 1842 0052 6091 0000 		lds r22,rgblight_config+2
 1843 0056 822B      		or r24,r18
 1844 0058 0E94 0000 		call rgblight_sethsv_noeeprom
 1845               	.LVL120:
 471:quantum/rgblight.c ****   pos = (pos + 1) % 256;
 1846               		.loc 1 471 3 is_stmt 1 view .LVU470
 1847               		.loc 1 471 7 is_stmt 0 view .LVU471
 1848 005c 8091 0000 		lds r24,pos.2226
 1849 0060 8F5F      		subi r24,lo8(-(1))
 1850 0062 8093 0000 		sts pos.2226,r24
 1851               	.L82:
 1852               	/* epilogue start */
 472:quantum/rgblight.c **** }
 1853               		.loc 1 472 1 view .LVU472
 1854 0066 CF91      		pop r28
 1855               	.LVL121:
 1856               		.loc 1 472 1 view .LVU473
 1857 0068 0895      		ret
 1858               		.cfi_endproc
 1859               	.LFE37:
 1861               		.section	.text.rgblight_effect_rainbow_mood,"ax",@progbits
 1862               	.global	rgblight_effect_rainbow_mood
 1864               	rgblight_effect_rainbow_mood:
 1865               	.LVL122:
 1866               	.LFB38:
 473:quantum/rgblight.c **** void rgblight_effect_rainbow_mood(uint8_t interval) {
 1867               		.loc 1 473 53 is_stmt 1 view -0
 1868               		.cfi_startproc
 1869               		.loc 1 473 53 is_stmt 0 view .LVU475
 1870 0000 CF93      		push r28
 1871               	.LCFI26:
 1872               		.cfi_def_cfa_offset 3
 1873               		.cfi_offset 28, -2
 1874               	/* prologue: function */
 1875               	/* frame size = 0 */
 1876               	/* stack size = 1 */
 1877               	.L__stack_usage = 1
 1878 0002 C82F      		mov r28,r24
 474:quantum/rgblight.c ****   static uint16_t current_hue = 0;
 1879               		.loc 1 474 3 is_stmt 1 view .LVU476
 475:quantum/rgblight.c ****   static uint16_t last_timer = 0;
 1880               		.loc 1 475 3 view .LVU477
 476:quantum/rgblight.c **** 
 477:quantum/rgblight.c ****   if (timer_elapsed(last_timer) < pgm_read_byte(&RGBLED_RAINBOW_MOOD_INTERVALS[interval])) {
 1881               		.loc 1 477 3 view .LVU478
 1882               		.loc 1 477 7 is_stmt 0 view .LVU479
 1883 0004 8091 0000 		lds r24,last_timer.2238
 1884 0008 9091 0000 		lds r25,last_timer.2238+1
 1885               	.LVL123:
 1886               		.loc 1 477 7 view .LVU480
 1887 000c 0E94 0000 		call timer_elapsed
 1888               	.LVL124:
 1889               	.LBB43:
 1890               		.loc 1 477 35 is_stmt 1 view .LVU481
 1891               		.loc 1 477 35 view .LVU482
 1892               		.loc 1 477 35 view .LVU483
 1893 0010 EC2F      		mov r30,r28
 1894 0012 F0E0      		ldi r31,0
 1895 0014 E050      		subi r30,lo8(-(RGBLED_RAINBOW_MOOD_INTERVALS))
 1896 0016 F040      		sbci r31,hi8(-(RGBLED_RAINBOW_MOOD_INTERVALS))
 1897               	/* #APP */
 1898               	 ;  477 "quantum/rgblight.c" 1
 1899 0018 E491      		lpm r30, Z
 1900               		
 1901               	 ;  0 "" 2
 1902               	.LVL125:
 1903               		.loc 1 477 35 view .LVU484
 1904               	/* #NOAPP */
 1905               	.LBE43:
 1906               		.loc 1 477 6 is_stmt 0 view .LVU485
 1907 001a E817      		cp r30,r24
 1908 001c 1906      		cpc __zero_reg__,r25
 1909 001e 01F0      		breq .+2
 1910 0020 00F4      		brsh .L84
 478:quantum/rgblight.c ****     return;
 479:quantum/rgblight.c ****   }
 480:quantum/rgblight.c ****   last_timer = timer_read();
 1911               		.loc 1 480 3 is_stmt 1 view .LVU486
 1912               		.loc 1 480 16 is_stmt 0 view .LVU487
 1913 0022 0E94 0000 		call timer_read
 1914               	.LVL126:
 1915               		.loc 1 480 14 view .LVU488
 1916 0026 9093 0000 		sts last_timer.2238+1,r25
 1917 002a 8093 0000 		sts last_timer.2238,r24
 481:quantum/rgblight.c ****   rgblight_sethsv_noeeprom(current_hue, rgblight_config.sat, rgblight_config.val);
 1918               		.loc 1 481 3 is_stmt 1 view .LVU489
 1919 002e 4091 0000 		lds r20,rgblight_config+3
 1920 0032 6091 0000 		lds r22,rgblight_config+2
 1921 0036 8091 0000 		lds r24,current_hue.2237
 1922 003a 9091 0000 		lds r25,current_hue.2237+1
 1923 003e 0E94 0000 		call rgblight_sethsv_noeeprom
 1924               	.LVL127:
 482:quantum/rgblight.c ****   current_hue = (current_hue + 1) % 360;
 1925               		.loc 1 482 3 view .LVU490
 1926               		.loc 1 482 30 is_stmt 0 view .LVU491
 1927 0042 8091 0000 		lds r24,current_hue.2237
 1928 0046 9091 0000 		lds r25,current_hue.2237+1
 1929 004a 0196      		adiw r24,1
 1930               		.loc 1 482 35 view .LVU492
 1931 004c 68E6      		ldi r22,lo8(104)
 1932 004e 71E0      		ldi r23,lo8(1)
 1933 0050 0E94 0000 		call __udivmodhi4
 1934               		.loc 1 482 15 view .LVU493
 1935 0054 9093 0000 		sts current_hue.2237+1,r25
 1936 0058 8093 0000 		sts current_hue.2237,r24
 1937               	.L84:
 1938               	/* epilogue start */
 483:quantum/rgblight.c **** }
 1939               		.loc 1 483 1 view .LVU494
 1940 005c CF91      		pop r28
 1941               	.LVL128:
 1942               		.loc 1 483 1 view .LVU495
 1943 005e 0895      		ret
 1944               		.cfi_endproc
 1945               	.LFE38:
 1947               		.section	.text.rgblight_effect_rainbow_swirl,"ax",@progbits
 1948               	.global	rgblight_effect_rainbow_swirl
 1950               	rgblight_effect_rainbow_swirl:
 1951               	.LVL129:
 1952               	.LFB39:
 484:quantum/rgblight.c **** void rgblight_effect_rainbow_swirl(uint8_t interval) {
 1953               		.loc 1 484 54 is_stmt 1 view -0
 1954               		.cfi_startproc
 1955               		.loc 1 484 54 is_stmt 0 view .LVU497
 1956 0000 CF92      		push r12
 1957               	.LCFI27:
 1958               		.cfi_def_cfa_offset 3
 1959               		.cfi_offset 12, -2
 1960 0002 DF92      		push r13
 1961               	.LCFI28:
 1962               		.cfi_def_cfa_offset 4
 1963               		.cfi_offset 13, -3
 1964 0004 FF92      		push r15
 1965               	.LCFI29:
 1966               		.cfi_def_cfa_offset 5
 1967               		.cfi_offset 15, -4
 1968 0006 0F93      		push r16
 1969               	.LCFI30:
 1970               		.cfi_def_cfa_offset 6
 1971               		.cfi_offset 16, -5
 1972 0008 1F93      		push r17
 1973               	.LCFI31:
 1974               		.cfi_def_cfa_offset 7
 1975               		.cfi_offset 17, -6
 1976 000a CF93      		push r28
 1977               	.LCFI32:
 1978               		.cfi_def_cfa_offset 8
 1979               		.cfi_offset 28, -7
 1980 000c DF93      		push r29
 1981               	.LCFI33:
 1982               		.cfi_def_cfa_offset 9
 1983               		.cfi_offset 29, -8
 1984               	/* prologue: function */
 1985               	/* frame size = 0 */
 1986               	/* stack size = 7 */
 1987               	.L__stack_usage = 7
 1988 000e F82E      		mov r15,r24
 485:quantum/rgblight.c ****   static uint16_t current_hue = 0;
 1989               		.loc 1 485 3 is_stmt 1 view .LVU498
 486:quantum/rgblight.c ****   static uint16_t last_timer = 0;
 1990               		.loc 1 486 3 view .LVU499
 487:quantum/rgblight.c ****   uint16_t hue;
 1991               		.loc 1 487 3 view .LVU500
 488:quantum/rgblight.c ****   uint8_t i;
 1992               		.loc 1 488 3 view .LVU501
 489:quantum/rgblight.c ****   if (timer_elapsed(last_timer) < pgm_read_byte(&RGBLED_RAINBOW_MOOD_INTERVALS[interval / 2])) {
 1993               		.loc 1 489 3 view .LVU502
 1994               		.loc 1 489 7 is_stmt 0 view .LVU503
 1995 0010 8091 0000 		lds r24,last_timer.2246
 1996 0014 9091 0000 		lds r25,last_timer.2246+1
 1997               	.LVL130:
 1998               		.loc 1 489 7 view .LVU504
 1999 0018 0E94 0000 		call timer_elapsed
 2000               	.LVL131:
 2001               	.LBB44:
 2002               		.loc 1 489 35 is_stmt 1 view .LVU505
 2003               		.loc 1 489 35 view .LVU506
 2004               		.loc 1 489 35 view .LVU507
 2005 001c EF2D      		mov r30,r15
 2006 001e E695      		lsr r30
 2007 0020 F0E0      		ldi r31,0
 2008 0022 E050      		subi r30,lo8(-(RGBLED_RAINBOW_MOOD_INTERVALS))
 2009 0024 F040      		sbci r31,hi8(-(RGBLED_RAINBOW_MOOD_INTERVALS))
 2010               	/* #APP */
 2011               	 ;  489 "quantum/rgblight.c" 1
 2012 0026 E491      		lpm r30, Z
 2013               		
 2014               	 ;  0 "" 2
 2015               	.LVL132:
 2016               		.loc 1 489 35 view .LVU508
 2017               	/* #NOAPP */
 2018               	.LBE44:
 2019               		.loc 1 489 6 is_stmt 0 view .LVU509
 2020 0028 E817      		cp r30,r24
 2021 002a 1906      		cpc __zero_reg__,r25
 2022 002c 01F0      		breq .+2
 2023 002e 00F4      		brsh .L86
 490:quantum/rgblight.c ****     return;
 491:quantum/rgblight.c ****   }
 492:quantum/rgblight.c ****   last_timer = timer_read();
 2024               		.loc 1 492 3 is_stmt 1 view .LVU510
 2025               		.loc 1 492 16 is_stmt 0 view .LVU511
 2026 0030 0E94 0000 		call timer_read
 2027               	.LVL133:
 2028               		.loc 1 492 14 view .LVU512
 2029 0034 9093 0000 		sts last_timer.2246+1,r25
 2030 0038 8093 0000 		sts last_timer.2246,r24
 493:quantum/rgblight.c ****   for (i = 0; i < RGBLED_NUM; i++) {
 2031               		.loc 1 493 3 is_stmt 1 view .LVU513
 2032               	.LVL134:
 2033               		.loc 1 493 3 is_stmt 0 view .LVU514
 2034 003c 00E0      		ldi r16,lo8(led)
 2035 003e 10E0      		ldi r17,hi8(led)
 492:quantum/rgblight.c ****   for (i = 0; i < RGBLED_NUM; i++) {
 2036               		.loc 1 492 14 view .LVU515
 2037 0040 D0E0      		ldi r29,0
 2038 0042 C0E0      		ldi r28,0
 494:quantum/rgblight.c ****     hue = (360 / RGBLED_NUM * i + current_hue) % 360;
 2039               		.loc 1 494 9 view .LVU516
 2040 0044 88E6      		ldi r24,lo8(104)
 2041 0046 C82E      		mov r12,r24
 2042 0048 DD24      		clr r13
 2043 004a D394      		inc r13
 2044               	.LVL135:
 2045               	.L88:
 2046               		.loc 1 494 5 is_stmt 1 discriminator 3 view .LVU517
 495:quantum/rgblight.c ****     sethsv(hue, rgblight_config.sat, rgblight_config.val, (LED_TYPE *)&led[i]);
 2047               		.loc 1 495 5 discriminator 3 view .LVU518
 494:quantum/rgblight.c ****     hue = (360 / RGBLED_NUM * i + current_hue) % 360;
 2048               		.loc 1 494 33 is_stmt 0 discriminator 3 view .LVU519
 2049 004c 8091 0000 		lds r24,current_hue.2245
 2050 0050 9091 0000 		lds r25,current_hue.2245+1
 2051 0054 8C0F      		add r24,r28
 2052 0056 9D1F      		adc r25,r29
 494:quantum/rgblight.c ****     hue = (360 / RGBLED_NUM * i + current_hue) % 360;
 2053               		.loc 1 494 9 discriminator 3 view .LVU520
 2054 0058 B601      		movw r22,r12
 2055 005a 0E94 0000 		call __udivmodhi4
 2056               		.loc 1 495 5 discriminator 3 view .LVU521
 2057 005e 9801      		movw r18,r16
 2058 0060 4091 0000 		lds r20,rgblight_config+3
 2059 0064 6091 0000 		lds r22,rgblight_config+2
 2060 0068 0E94 0000 		call sethsv
 2061               	.LVL136:
 2062               		.loc 1 495 5 discriminator 3 view .LVU522
 2063 006c C65A      		subi r28,-90
 2064 006e DF4F      		sbci r29,-1
 2065 0070 0D5F      		subi r16,-3
 2066 0072 1F4F      		sbci r17,-1
 493:quantum/rgblight.c ****     hue = (360 / RGBLED_NUM * i + current_hue) % 360;
 2067               		.loc 1 493 3 discriminator 3 view .LVU523
 2068 0074 C836      		cpi r28,104
 2069 0076 81E0      		ldi r24,1
 2070 0078 D807      		cpc r29,r24
 2071 007a 01F4      		brne .L88
 496:quantum/rgblight.c ****   }
 497:quantum/rgblight.c ****   rgblight_set();
 2072               		.loc 1 497 3 is_stmt 1 view .LVU524
 2073 007c 0E94 0000 		call rgblight_set
 2074               	.LVL137:
 498:quantum/rgblight.c **** 
 499:quantum/rgblight.c ****   if (interval % 2) {
 2075               		.loc 1 499 3 view .LVU525
 2076 0080 8091 0000 		lds r24,current_hue.2245
 2077 0084 9091 0000 		lds r25,current_hue.2245+1
 2078               		.loc 1 499 6 is_stmt 0 view .LVU526
 2079 0088 F0FE      		sbrs r15,0
 2080 008a 00C0      		rjmp .L89
 500:quantum/rgblight.c ****     current_hue = (current_hue + 1) % 360;
 2081               		.loc 1 500 5 is_stmt 1 view .LVU527
 2082               		.loc 1 500 32 is_stmt 0 view .LVU528
 2083 008c 0196      		adiw r24,1
 2084               		.loc 1 500 37 view .LVU529
 2085 008e BE01      		movw r22,r28
 2086 0090 0E94 0000 		call __udivmodhi4
 2087               	.L91:
 501:quantum/rgblight.c ****   } else {
 502:quantum/rgblight.c ****     if (current_hue - 1 < 0) {
 503:quantum/rgblight.c ****       current_hue = 359;
 504:quantum/rgblight.c ****     } else {
 505:quantum/rgblight.c ****       current_hue = current_hue - 1;
 2088               		.loc 1 505 19 view .LVU530
 2089 0094 9093 0000 		sts current_hue.2245+1,r25
 2090 0098 8093 0000 		sts current_hue.2245,r24
 2091               	.L86:
 2092               	/* epilogue start */
 506:quantum/rgblight.c ****     }
 507:quantum/rgblight.c ****   }
 508:quantum/rgblight.c **** }
 2093               		.loc 1 508 1 view .LVU531
 2094 009c DF91      		pop r29
 2095 009e CF91      		pop r28
 2096 00a0 1F91      		pop r17
 2097 00a2 0F91      		pop r16
 2098 00a4 FF90      		pop r15
 2099               	.LVL138:
 2100               		.loc 1 508 1 view .LVU532
 2101 00a6 DF90      		pop r13
 2102 00a8 CF90      		pop r12
 2103 00aa 0895      		ret
 2104               	.LVL139:
 2105               	.L89:
 502:quantum/rgblight.c ****       current_hue = 359;
 2106               		.loc 1 502 5 is_stmt 1 view .LVU533
 505:quantum/rgblight.c ****     }
 2107               		.loc 1 505 7 view .LVU534
 505:quantum/rgblight.c ****     }
 2108               		.loc 1 505 33 is_stmt 0 view .LVU535
 2109 00ac 0197      		sbiw r24,1
 2110 00ae 00C0      		rjmp .L91
 2111               		.cfi_endproc
 2112               	.LFE39:
 2114               		.section	.text.rgblight_effect_snake,"ax",@progbits
 2115               	.global	rgblight_effect_snake
 2117               	rgblight_effect_snake:
 2118               	.LVL140:
 2119               	.LFB40:
 509:quantum/rgblight.c **** void rgblight_effect_snake(uint8_t interval) {
 2120               		.loc 1 509 46 is_stmt 1 view -0
 2121               		.cfi_startproc
 2122               		.loc 1 509 46 is_stmt 0 view .LVU537
 2123 0000 AF92      		push r10
 2124               	.LCFI34:
 2125               		.cfi_def_cfa_offset 3
 2126               		.cfi_offset 10, -2
 2127 0002 BF92      		push r11
 2128               	.LCFI35:
 2129               		.cfi_def_cfa_offset 4
 2130               		.cfi_offset 11, -3
 2131 0004 CF92      		push r12
 2132               	.LCFI36:
 2133               		.cfi_def_cfa_offset 5
 2134               		.cfi_offset 12, -4
 2135 0006 DF92      		push r13
 2136               	.LCFI37:
 2137               		.cfi_def_cfa_offset 6
 2138               		.cfi_offset 13, -5
 2139 0008 EF92      		push r14
 2140               	.LCFI38:
 2141               		.cfi_def_cfa_offset 7
 2142               		.cfi_offset 14, -6
 2143 000a FF92      		push r15
 2144               	.LCFI39:
 2145               		.cfi_def_cfa_offset 8
 2146               		.cfi_offset 15, -7
 2147 000c 0F93      		push r16
 2148               	.LCFI40:
 2149               		.cfi_def_cfa_offset 9
 2150               		.cfi_offset 16, -8
 2151 000e 1F93      		push r17
 2152               	.LCFI41:
 2153               		.cfi_def_cfa_offset 10
 2154               		.cfi_offset 17, -9
 2155 0010 CF93      		push r28
 2156               	.LCFI42:
 2157               		.cfi_def_cfa_offset 11
 2158               		.cfi_offset 28, -10
 2159 0012 DF93      		push r29
 2160               	.LCFI43:
 2161               		.cfi_def_cfa_offset 12
 2162               		.cfi_offset 29, -11
 2163               	/* prologue: function */
 2164               	/* frame size = 0 */
 2165               	/* stack size = 10 */
 2166               	.L__stack_usage = 10
 2167 0014 C82F      		mov r28,r24
 510:quantum/rgblight.c ****   static uint8_t pos = 0;
 2168               		.loc 1 510 3 is_stmt 1 view .LVU538
 511:quantum/rgblight.c ****   static uint16_t last_timer = 0;
 2169               		.loc 1 511 3 view .LVU539
 512:quantum/rgblight.c ****   uint8_t i, j;
 2170               		.loc 1 512 3 view .LVU540
 513:quantum/rgblight.c ****   int8_t k;
 2171               		.loc 1 513 3 view .LVU541
 514:quantum/rgblight.c ****   int8_t increment = 1;
 2172               		.loc 1 514 3 view .LVU542
 2173               	.LVL141:
 515:quantum/rgblight.c ****   if (interval % 2) {
 2174               		.loc 1 515 3 view .LVU543
 516:quantum/rgblight.c ****     increment = -1;
 2175               		.loc 1 516 15 is_stmt 0 view .LVU544
 2176 0016 FF24      		clr r15
 2177 0018 FA94      		dec r15
 515:quantum/rgblight.c ****   if (interval % 2) {
 2178               		.loc 1 515 6 view .LVU545
 2179 001a 80FD      		sbrc r24,0
 2180 001c 00C0      		rjmp .L93
 514:quantum/rgblight.c ****   int8_t increment = 1;
 2181               		.loc 1 514 10 view .LVU546
 2182 001e FF24      		clr r15
 2183 0020 F394      		inc r15
 2184               	.L93:
 2185               	.LVL142:
 517:quantum/rgblight.c ****   }
 518:quantum/rgblight.c ****   if (timer_elapsed(last_timer) < pgm_read_byte(&RGBLED_SNAKE_INTERVALS[interval / 2])) {
 2186               		.loc 1 518 3 is_stmt 1 view .LVU547
 2187               		.loc 1 518 7 is_stmt 0 view .LVU548
 2188 0022 8091 0000 		lds r24,last_timer.2259
 2189 0026 9091 0000 		lds r25,last_timer.2259+1
 2190               	.LVL143:
 2191               		.loc 1 518 7 view .LVU549
 2192 002a 0E94 0000 		call timer_elapsed
 2193               	.LVL144:
 2194               	.LBB45:
 2195               		.loc 1 518 35 is_stmt 1 view .LVU550
 2196               		.loc 1 518 35 view .LVU551
 2197               		.loc 1 518 35 view .LVU552
 2198 002e C695      		lsr r28
 2199               	.LVL145:
 2200               		.loc 1 518 35 is_stmt 0 view .LVU553
 2201 0030 EC2F      		mov r30,r28
 2202 0032 F0E0      		ldi r31,0
 2203 0034 E050      		subi r30,lo8(-(RGBLED_SNAKE_INTERVALS))
 2204 0036 F040      		sbci r31,hi8(-(RGBLED_SNAKE_INTERVALS))
 2205               	/* #APP */
 2206               	 ;  518 "quantum/rgblight.c" 1
 2207 0038 E491      		lpm r30, Z
 2208               		
 2209               	 ;  0 "" 2
 2210               	.LVL146:
 2211               		.loc 1 518 35 is_stmt 1 view .LVU554
 2212               	/* #NOAPP */
 2213               	.LBE45:
 2214               		.loc 1 518 6 is_stmt 0 view .LVU555
 2215 003a E817      		cp r30,r24
 2216 003c 1906      		cpc __zero_reg__,r25
 2217 003e 01F0      		breq .+4
 2218 0040 00F0      		brlo .+2
 2219 0042 00C0      		rjmp .L92
 519:quantum/rgblight.c ****     return;
 520:quantum/rgblight.c ****   }
 521:quantum/rgblight.c ****   last_timer = timer_read();
 2220               		.loc 1 521 3 is_stmt 1 view .LVU556
 2221               		.loc 1 521 16 is_stmt 0 view .LVU557
 2222 0044 0E94 0000 		call timer_read
 2223               	.LVL147:
 2224               		.loc 1 521 14 view .LVU558
 2225 0048 9093 0000 		sts last_timer.2259+1,r25
 2226 004c 8093 0000 		sts last_timer.2259,r24
 522:quantum/rgblight.c ****   for (i = 0; i < RGBLED_NUM; i++) {
 2227               		.loc 1 522 3 is_stmt 1 view .LVU559
 2228               	.LVL148:
 2229               		.loc 1 522 3 is_stmt 0 view .LVU560
 2230 0050 C0E0      		ldi r28,lo8(led)
 2231 0052 D0E0      		ldi r29,hi8(led)
 521:quantum/rgblight.c ****   for (i = 0; i < RGBLED_NUM; i++) {
 2232               		.loc 1 521 14 view .LVU561
 2233 0054 10E0      		ldi r17,0
 2234 0056 00E0      		ldi r16,0
 523:quantum/rgblight.c ****     led[i].r = 0;
 524:quantum/rgblight.c ****     led[i].g = 0;
 525:quantum/rgblight.c ****     led[i].b = 0;
 526:quantum/rgblight.c ****     for (j = 0; j < RGBLIGHT_EFFECT_SNAKE_LENGTH; j++) {
 527:quantum/rgblight.c ****       k = pos + j * increment;
 528:quantum/rgblight.c ****       if (k < 0) {
 529:quantum/rgblight.c ****         k = k + RGBLED_NUM;
 530:quantum/rgblight.c ****       }
 531:quantum/rgblight.c ****       if (i == k) {
 532:quantum/rgblight.c ****         sethsv(rgblight_config.hue, rgblight_config.sat, (uint8_t)(rgblight_config.val*(RGBLIGHT_EF
 2235               		.loc 1 532 120 view .LVU562
 2236 0058 97E0      		ldi r25,lo8(7)
 2237 005a C92E      		mov r12,r25
 2238 005c D12C      		mov r13,__zero_reg__
 2239               	.LVL149:
 2240               	.L98:
 523:quantum/rgblight.c ****     led[i].r = 0;
 2241               		.loc 1 523 5 is_stmt 1 view .LVU563
 523:quantum/rgblight.c ****     led[i].r = 0;
 2242               		.loc 1 523 14 is_stmt 0 view .LVU564
 2243 005e 1982      		std Y+1,__zero_reg__
 524:quantum/rgblight.c ****     led[i].b = 0;
 2244               		.loc 1 524 5 is_stmt 1 view .LVU565
 524:quantum/rgblight.c ****     led[i].b = 0;
 2245               		.loc 1 524 14 is_stmt 0 view .LVU566
 2246 0060 1882      		st Y,__zero_reg__
 525:quantum/rgblight.c ****     for (j = 0; j < RGBLIGHT_EFFECT_SNAKE_LENGTH; j++) {
 2247               		.loc 1 525 5 is_stmt 1 view .LVU567
 525:quantum/rgblight.c ****     for (j = 0; j < RGBLIGHT_EFFECT_SNAKE_LENGTH; j++) {
 2248               		.loc 1 525 14 is_stmt 0 view .LVU568
 2249 0062 1A82      		std Y+2,__zero_reg__
 526:quantum/rgblight.c ****       k = pos + j * increment;
 2250               		.loc 1 526 5 is_stmt 1 view .LVU569
 2251               	.LVL150:
 525:quantum/rgblight.c ****     for (j = 0; j < RGBLIGHT_EFFECT_SNAKE_LENGTH; j++) {
 2252               		.loc 1 525 14 is_stmt 0 view .LVU570
 2253 0064 87E0      		ldi r24,lo8(7)
 2254 0066 A82E      		mov r10,r24
 2255 0068 B12C      		mov r11,__zero_reg__
 2256 006a E12C      		mov r14,__zero_reg__
 2257               	.LVL151:
 2258               	.L97:
 527:quantum/rgblight.c ****       if (k < 0) {
 2259               		.loc 1 527 7 is_stmt 1 view .LVU571
 527:quantum/rgblight.c ****       if (k < 0) {
 2260               		.loc 1 527 15 is_stmt 0 view .LVU572
 2261 006c 8091 0000 		lds r24,pos.2258
 2262 0070 8E0D      		add r24,r14
 2263               	.LVL152:
 528:quantum/rgblight.c ****         k = k + RGBLED_NUM;
 2264               		.loc 1 528 7 is_stmt 1 view .LVU573
 528:quantum/rgblight.c ****         k = k + RGBLED_NUM;
 2265               		.loc 1 528 10 is_stmt 0 view .LVU574
 2266 0072 87FD      		sbrc r24,7
 529:quantum/rgblight.c ****       }
 2267               		.loc 1 529 9 is_stmt 1 view .LVU575
 529:quantum/rgblight.c ****       }
 2268               		.loc 1 529 15 is_stmt 0 view .LVU576
 2269 0074 8C5F      		subi r24,lo8(-(4))
 2270               	.LVL153:
 2271               	.L95:
 531:quantum/rgblight.c ****         sethsv(rgblight_config.hue, rgblight_config.sat, (uint8_t)(rgblight_config.val*(RGBLIGHT_EF
 2272               		.loc 1 531 7 is_stmt 1 view .LVU577
 531:quantum/rgblight.c ****         sethsv(rgblight_config.hue, rgblight_config.sat, (uint8_t)(rgblight_config.val*(RGBLIGHT_EF
 2273               		.loc 1 531 13 is_stmt 0 view .LVU578
 2274 0076 082E      		mov __tmp_reg__,r24
 2275 0078 000C      		lsl r0
 2276 007a 990B      		sbc r25,r25
 531:quantum/rgblight.c ****         sethsv(rgblight_config.hue, rgblight_config.sat, (uint8_t)(rgblight_config.val*(RGBLIGHT_EF
 2277               		.loc 1 531 10 view .LVU579
 2278 007c 8017      		cp r24,r16
 2279 007e 9107      		cpc r25,r17
 2280 0080 01F4      		brne .L96
 2281               		.loc 1 532 9 is_stmt 1 view .LVU580
 2282               		.loc 1 532 83 is_stmt 0 view .LVU581
 2283 0082 2091 0000 		lds r18,rgblight_config+3
 2284               		.loc 1 532 87 view .LVU582
 2285 0086 2A9D      		mul r18,r10
 2286 0088 C001      		movw r24,r0
 2287 008a 2B9D      		mul r18,r11
 2288 008c 900D      		add r25,r0
 2289 008e 1124      		clr __zero_reg__
 2290               	.LVL154:
 2291               		.loc 1 532 120 view .LVU583
 2292 0090 B601      		movw r22,r12
 2293 0092 0E94 0000 		call __divmodhi4
 2294 0096 462F      		mov r20,r22
 2295               		.loc 1 532 31 view .LVU584
 2296 0098 8091 0000 		lds r24,rgblight_config
 2297 009c 881F      		rol r24
 2298 009e 8827      		clr r24
 2299 00a0 881F      		rol r24
 2300 00a2 9091 0000 		lds r25,rgblight_config+1
 2301 00a6 592F      		mov r21,r25
 2302 00a8 550F      		lsl r21
 2303 00aa 97FB      		bst r25,7
 2304 00ac 9927      		clr r25
 2305 00ae 90F9      		bld r25,0
 2306               		.loc 1 532 9 view .LVU585
 2307 00b0 9E01      		movw r18,r28
 2308 00b2 6091 0000 		lds r22,rgblight_config+2
 2309 00b6 852B      		or r24,r21
 2310 00b8 0E94 0000 		call sethsv
 2311               	.LVL155:
 2312               	.L96:
 2313               		.loc 1 532 9 view .LVU586
 2314 00bc EF0C      		add r14,r15
 2315 00be 81E0      		ldi r24,1
 2316 00c0 A81A      		sub r10,r24
 2317 00c2 B108      		sbc r11,__zero_reg__
 526:quantum/rgblight.c ****       k = pos + j * increment;
 2318               		.loc 1 526 5 discriminator 2 view .LVU587
 2319 00c4 01F4      		brne .L97
 2320               	.LVL156:
 526:quantum/rgblight.c ****       k = pos + j * increment;
 2321               		.loc 1 526 5 discriminator 2 view .LVU588
 2322 00c6 0F5F      		subi r16,-1
 2323 00c8 1F4F      		sbci r17,-1
 2324               	.LVL157:
 526:quantum/rgblight.c ****       k = pos + j * increment;
 2325               		.loc 1 526 5 discriminator 2 view .LVU589
 2326 00ca 2396      		adiw r28,3
 522:quantum/rgblight.c ****     led[i].r = 0;
 2327               		.loc 1 522 3 discriminator 2 view .LVU590
 2328 00cc 0430      		cpi r16,4
 2329 00ce 1105      		cpc r17,__zero_reg__
 2330 00d0 01F4      		brne .L98
 533:quantum/rgblight.c ****       }
 534:quantum/rgblight.c ****     }
 535:quantum/rgblight.c ****   }
 536:quantum/rgblight.c ****   rgblight_set();
 2331               		.loc 1 536 3 is_stmt 1 view .LVU591
 2332 00d2 0E94 0000 		call rgblight_set
 2333               	.LVL158:
 537:quantum/rgblight.c ****   if (increment == 1) {
 2334               		.loc 1 537 3 view .LVU592
 2335 00d6 8091 0000 		lds r24,pos.2258
 2336               		.loc 1 537 6 is_stmt 0 view .LVU593
 2337 00da 91E0      		ldi r25,lo8(1)
 2338 00dc F912      		cpse r15,r25
 2339 00de 00C0      		rjmp .L99
 538:quantum/rgblight.c ****     if (pos - 1 < 0) {
 2340               		.loc 1 538 5 is_stmt 1 view .LVU594
 2341               		.loc 1 538 8 is_stmt 0 view .LVU595
 2342 00e0 8111      		cpse r24,__zero_reg__
 2343 00e2 00C0      		rjmp .L100
 539:quantum/rgblight.c ****       pos = RGBLED_NUM - 1;
 2344               		.loc 1 539 7 is_stmt 1 view .LVU596
 2345               		.loc 1 539 11 is_stmt 0 view .LVU597
 2346 00e4 83E0      		ldi r24,lo8(3)
 2347               	.L104:
 540:quantum/rgblight.c ****     } else {
 541:quantum/rgblight.c ****       pos -= 1;
 542:quantum/rgblight.c ****     }
 543:quantum/rgblight.c ****   } else {
 544:quantum/rgblight.c ****     pos = (pos + 1) % RGBLED_NUM;
 2348               		.loc 1 544 9 view .LVU598
 2349 00e6 8093 0000 		sts pos.2258,r24
 2350               	.LVL159:
 2351               	.L92:
 2352               	/* epilogue start */
 545:quantum/rgblight.c ****   }
 546:quantum/rgblight.c **** }
 2353               		.loc 1 546 1 view .LVU599
 2354 00ea DF91      		pop r29
 2355 00ec CF91      		pop r28
 2356 00ee 1F91      		pop r17
 2357 00f0 0F91      		pop r16
 2358 00f2 FF90      		pop r15
 2359               	.LVL160:
 2360               		.loc 1 546 1 view .LVU600
 2361 00f4 EF90      		pop r14
 2362 00f6 DF90      		pop r13
 2363 00f8 CF90      		pop r12
 2364 00fa BF90      		pop r11
 2365 00fc AF90      		pop r10
 2366 00fe 0895      		ret
 2367               	.LVL161:
 2368               	.L100:
 541:quantum/rgblight.c ****     }
 2369               		.loc 1 541 7 is_stmt 1 view .LVU601
 541:quantum/rgblight.c ****     }
 2370               		.loc 1 541 11 is_stmt 0 view .LVU602
 2371 0100 8150      		subi r24,lo8(-(-1))
 2372 0102 00C0      		rjmp .L104
 2373               	.L99:
 544:quantum/rgblight.c ****   }
 2374               		.loc 1 544 5 is_stmt 1 view .LVU603
 544:quantum/rgblight.c ****   }
 2375               		.loc 1 544 16 is_stmt 0 view .LVU604
 2376 0104 90E0      		ldi r25,0
 2377 0106 0196      		adiw r24,1
 544:quantum/rgblight.c ****   }
 2378               		.loc 1 544 21 view .LVU605
 2379 0108 8370      		andi r24,3
 2380 010a 9927      		clr r25
 2381 010c 00C0      		rjmp .L104
 2382               		.cfi_endproc
 2383               	.LFE40:
 2385               		.section	.text.rgblight_effect_knight,"ax",@progbits
 2386               	.global	rgblight_effect_knight
 2388               	rgblight_effect_knight:
 2389               	.LVL162:
 2390               	.LFB41:
 547:quantum/rgblight.c **** void rgblight_effect_knight(uint8_t interval) {
 2391               		.loc 1 547 47 is_stmt 1 view -0
 2392               		.cfi_startproc
 2393               		.loc 1 547 47 is_stmt 0 view .LVU607
 2394 0000 BF92      		push r11
 2395               	.LCFI44:
 2396               		.cfi_def_cfa_offset 3
 2397               		.cfi_offset 11, -2
 2398 0002 CF92      		push r12
 2399               	.LCFI45:
 2400               		.cfi_def_cfa_offset 4
 2401               		.cfi_offset 12, -3
 2402 0004 DF92      		push r13
 2403               	.LCFI46:
 2404               		.cfi_def_cfa_offset 5
 2405               		.cfi_offset 13, -4
 2406 0006 EF92      		push r14
 2407               	.LCFI47:
 2408               		.cfi_def_cfa_offset 6
 2409               		.cfi_offset 14, -5
 2410 0008 FF92      		push r15
 2411               	.LCFI48:
 2412               		.cfi_def_cfa_offset 7
 2413               		.cfi_offset 15, -6
 2414 000a 0F93      		push r16
 2415               	.LCFI49:
 2416               		.cfi_def_cfa_offset 8
 2417               		.cfi_offset 16, -7
 2418 000c 1F93      		push r17
 2419               	.LCFI50:
 2420               		.cfi_def_cfa_offset 9
 2421               		.cfi_offset 17, -8
 2422 000e CF93      		push r28
 2423               	.LCFI51:
 2424               		.cfi_def_cfa_offset 10
 2425               		.cfi_offset 28, -9
 2426 0010 DF93      		push r29
 2427               	.LCFI52:
 2428               		.cfi_def_cfa_offset 11
 2429               		.cfi_offset 29, -10
 2430 0012 CDB7      		in r28,__SP_L__
 2431 0014 DEB7      		in r29,__SP_H__
 2432               	.LCFI53:
 2433               		.cfi_def_cfa_register 28
 2434 0016 2C97      		sbiw r28,12
 2435               	.LCFI54:
 2436               		.cfi_def_cfa_offset 23
 2437 0018 0FB6      		in __tmp_reg__,__SREG__
 2438 001a F894      		cli
 2439 001c DEBF      		out __SP_H__,r29
 2440 001e 0FBE      		out __SREG__,__tmp_reg__
 2441 0020 CDBF      		out __SP_L__,r28
 2442               	/* prologue: function */
 2443               	/* frame size = 12 */
 2444               	/* stack size = 21 */
 2445               	.L__stack_usage = 21
 2446 0022 182F      		mov r17,r24
 548:quantum/rgblight.c ****   static int8_t pos = 0;
 2447               		.loc 1 548 3 is_stmt 1 view .LVU608
 549:quantum/rgblight.c ****   static uint16_t last_timer = 0;
 2448               		.loc 1 549 3 view .LVU609
 550:quantum/rgblight.c ****   uint8_t i, j, cur;
 2449               		.loc 1 550 3 view .LVU610
 551:quantum/rgblight.c ****   int8_t k;
 2450               		.loc 1 551 3 view .LVU611
 552:quantum/rgblight.c ****   LED_TYPE preled[RGBLED_NUM];
 2451               		.loc 1 552 3 view .LVU612
 553:quantum/rgblight.c ****   static int8_t increment = -1;
 2452               		.loc 1 553 3 view .LVU613
 554:quantum/rgblight.c ****   if (timer_elapsed(last_timer) < pgm_read_byte(&RGBLED_KNIGHT_INTERVALS[interval])) {
 2453               		.loc 1 554 3 view .LVU614
 2454               		.loc 1 554 7 is_stmt 0 view .LVU615
 2455 0024 8091 0000 		lds r24,last_timer.2277
 2456 0028 9091 0000 		lds r25,last_timer.2277+1
 2457               	.LVL163:
 2458               		.loc 1 554 7 view .LVU616
 2459 002c 0E94 0000 		call timer_elapsed
 2460               	.LVL164:
 2461               	.LBB46:
 2462               		.loc 1 554 35 is_stmt 1 view .LVU617
 2463               		.loc 1 554 35 view .LVU618
 2464               		.loc 1 554 35 view .LVU619
 2465 0030 E12F      		mov r30,r17
 2466 0032 F0E0      		ldi r31,0
 2467 0034 E050      		subi r30,lo8(-(RGBLED_KNIGHT_INTERVALS))
 2468 0036 F040      		sbci r31,hi8(-(RGBLED_KNIGHT_INTERVALS))
 2469               	/* #APP */
 2470               	 ;  554 "quantum/rgblight.c" 1
 2471 0038 E491      		lpm r30, Z
 2472               		
 2473               	 ;  0 "" 2
 2474               	.LVL165:
 2475               		.loc 1 554 35 view .LVU620
 2476               	/* #NOAPP */
 2477               	.LBE46:
 2478               		.loc 1 554 6 is_stmt 0 view .LVU621
 2479 003a E817      		cp r30,r24
 2480 003c 1906      		cpc __zero_reg__,r25
 2481 003e 01F0      		breq .+4
 2482 0040 00F0      		brlo .+2
 2483 0042 00C0      		rjmp .L105
 555:quantum/rgblight.c ****     return;
 556:quantum/rgblight.c ****   }
 557:quantum/rgblight.c ****   last_timer = timer_read();
 2484               		.loc 1 557 3 is_stmt 1 view .LVU622
 2485               		.loc 1 557 16 is_stmt 0 view .LVU623
 2486 0044 0E94 0000 		call timer_read
 2487               	.LVL166:
 2488               		.loc 1 557 14 view .LVU624
 2489 0048 9093 0000 		sts last_timer.2277+1,r25
 2490 004c 8093 0000 		sts last_timer.2277,r24
 558:quantum/rgblight.c ****   for (i = 0; i < RGBLED_NUM; i++) {
 2491               		.loc 1 558 3 is_stmt 1 view .LVU625
 2492               	.LVL167:
 2493               		.loc 1 558 3 is_stmt 0 view .LVU626
 2494 0050 8E01      		movw r16,r28
 2495 0052 0F5F      		subi r16,-1
 2496 0054 1F4F      		sbci r17,-1
 557:quantum/rgblight.c ****   for (i = 0; i < RGBLED_NUM; i++) {
 2497               		.loc 1 557 14 view .LVU627
 2498 0056 F12C      		mov r15,__zero_reg__
 2499 0058 E12C      		mov r14,__zero_reg__
 2500 005a 6801      		movw r12,r16
 2501               	.LVL168:
 2502               	.L111:
 559:quantum/rgblight.c ****     preled[i].r = 0;
 2503               		.loc 1 559 5 is_stmt 1 view .LVU628
 2504               		.loc 1 559 17 is_stmt 0 view .LVU629
 2505 005c F801      		movw r30,r16
 2506 005e 1182      		std Z+1,__zero_reg__
 560:quantum/rgblight.c ****     preled[i].g = 0;
 2507               		.loc 1 560 5 is_stmt 1 view .LVU630
 2508               		.loc 1 560 17 is_stmt 0 view .LVU631
 2509 0060 1082      		st Z,__zero_reg__
 561:quantum/rgblight.c ****     preled[i].b = 0;
 2510               		.loc 1 561 5 is_stmt 1 view .LVU632
 2511               		.loc 1 561 17 is_stmt 0 view .LVU633
 2512 0062 1282      		std Z+2,__zero_reg__
 562:quantum/rgblight.c ****     for (j = 0; j < RGBLIGHT_EFFECT_KNIGHT_LENGTH; j++) {
 2513               		.loc 1 562 5 is_stmt 1 view .LVU634
 2514               	.LVL169:
 2515               		.loc 1 562 12 is_stmt 0 view .LVU635
 2516 0064 B12C      		mov r11,__zero_reg__
 2517               	.LVL170:
 2518               	.L110:
 563:quantum/rgblight.c ****       k = pos + j * increment;
 2519               		.loc 1 563 7 is_stmt 1 view .LVU636
 564:quantum/rgblight.c ****       if (k < 0) {
 2520               		.loc 1 564 7 view .LVU637
 563:quantum/rgblight.c ****       k = pos + j * increment;
 2521               		.loc 1 563 15 is_stmt 0 view .LVU638
 2522 0066 9091 0000 		lds r25,increment.2283
 2523 006a 8091 0000 		lds r24,pos.2276
 2524 006e B99E      		mul r11,r25
 2525 0070 800D      		add r24,r0
 2526 0072 1124      		clr __zero_reg__
 2527               	.LVL171:
 563:quantum/rgblight.c ****       k = pos + j * increment;
 2528               		.loc 1 563 15 view .LVU639
 2529 0074 8430      		cpi r24,lo8(4)
 2530 0076 04F0      		brlt .L107
 2531 0078 83E0      		ldi r24,lo8(3)
 2532               	.LVL172:
 2533               	.L107:
 565:quantum/rgblight.c ****         k = 0;
 566:quantum/rgblight.c ****       }
 567:quantum/rgblight.c ****       if (k >= RGBLED_NUM) {
 568:quantum/rgblight.c ****         k = RGBLED_NUM - 1;
 569:quantum/rgblight.c ****       }
 570:quantum/rgblight.c ****       if (i == k) {
 2534               		.loc 1 570 7 is_stmt 1 view .LVU640
 2535               		.loc 1 570 13 is_stmt 0 view .LVU641
 2536 007a 87FD      		sbrc r24,7
 2537 007c 80E0      		ldi r24,0
 2538               	.LVL173:
 2539               	.L109:
 2540               		.loc 1 570 13 view .LVU642
 2541 007e 082E      		mov __tmp_reg__,r24
 2542 0080 000C      		lsl r0
 2543 0082 990B      		sbc r25,r25
 2544               		.loc 1 570 10 view .LVU643
 2545 0084 8E15      		cp r24,r14
 2546 0086 9F05      		cpc r25,r15
 2547 0088 01F4      		brne .L108
 571:quantum/rgblight.c ****         sethsv(rgblight_config.hue, rgblight_config.sat, rgblight_config.val, (LED_TYPE *)&preled[i
 2548               		.loc 1 571 9 is_stmt 1 view .LVU644
 2549               		.loc 1 571 31 is_stmt 0 view .LVU645
 2550 008a 8091 0000 		lds r24,rgblight_config
 2551 008e 881F      		rol r24
 2552 0090 8827      		clr r24
 2553 0092 881F      		rol r24
 2554 0094 9091 0000 		lds r25,rgblight_config+1
 2555 0098 592F      		mov r21,r25
 2556 009a 550F      		lsl r21
 2557 009c 97FB      		bst r25,7
 2558 009e 9927      		clr r25
 2559 00a0 90F9      		bld r25,0
 2560               		.loc 1 571 9 view .LVU646
 2561 00a2 9801      		movw r18,r16
 2562 00a4 4091 0000 		lds r20,rgblight_config+3
 2563 00a8 6091 0000 		lds r22,rgblight_config+2
 2564 00ac 852B      		or r24,r21
 2565 00ae 0E94 0000 		call sethsv
 2566               	.LVL174:
 2567               	.L108:
 562:quantum/rgblight.c ****       k = pos + j * increment;
 2568               		.loc 1 562 53 discriminator 2 view .LVU647
 2569 00b2 B394      		inc r11
 2570               	.LVL175:
 562:quantum/rgblight.c ****       k = pos + j * increment;
 2571               		.loc 1 562 5 discriminator 2 view .LVU648
 2572 00b4 F7E0      		ldi r31,lo8(7)
 2573 00b6 BF12      		cpse r11,r31
 2574 00b8 00C0      		rjmp .L110
 2575               	.LVL176:
 562:quantum/rgblight.c ****       k = pos + j * increment;
 2576               		.loc 1 562 5 discriminator 2 view .LVU649
 2577 00ba 8FEF      		ldi r24,-1
 2578 00bc E81A      		sub r14,r24
 2579 00be F80A      		sbc r15,r24
 2580               	.LVL177:
 562:quantum/rgblight.c ****       k = pos + j * increment;
 2581               		.loc 1 562 5 discriminator 2 view .LVU650
 2582 00c0 0D5F      		subi r16,-3
 2583 00c2 1F4F      		sbci r17,-1
 558:quantum/rgblight.c ****     preled[i].r = 0;
 2584               		.loc 1 558 3 discriminator 2 view .LVU651
 2585 00c4 E4E0      		ldi r30,4
 2586 00c6 EE16      		cp r14,r30
 2587 00c8 F104      		cpc r15,__zero_reg__
 2588 00ca 01F4      		brne .L111
 2589 00cc A0E0      		ldi r26,lo8(led)
 2590 00ce B0E0      		ldi r27,hi8(led)
 558:quantum/rgblight.c ****     preled[i].r = 0;
 2591               		.loc 1 558 3 view .LVU652
 2592 00d0 89E0      		ldi r24,lo8(9)
 2593 00d2 90E0      		ldi r25,0
 2594               	.LVL178:
 2595               	.L112:
 572:quantum/rgblight.c ****       }
 573:quantum/rgblight.c ****     }
 574:quantum/rgblight.c ****   }
 575:quantum/rgblight.c ****   if (RGBLIGHT_EFFECT_KNIGHT_OFFSET) {
 576:quantum/rgblight.c ****     for (i = 0; i < RGBLED_NUM; i++) {
 577:quantum/rgblight.c ****       cur = (i + RGBLIGHT_EFFECT_KNIGHT_OFFSET) % RGBLED_NUM;
 2596               		.loc 1 577 7 is_stmt 1 discriminator 3 view .LVU653
 2597               		.loc 1 577 49 is_stmt 0 discriminator 3 view .LVU654
 2598 00d4 9C01      		movw r18,r24
 2599 00d6 2370      		andi r18,3
 2600 00d8 3327      		clr r19
 2601               	.LVL179:
 578:quantum/rgblight.c ****       led[i].r = preled[cur].r;
 2602               		.loc 1 578 7 is_stmt 1 discriminator 3 view .LVU655
 2603               		.loc 1 578 29 is_stmt 0 discriminator 3 view .LVU656
 2604 00da F901      		movw r30,r18
 2605 00dc EE0F      		lsl r30
 2606 00de FF1F      		rol r31
 2607 00e0 E20F      		add r30,r18
 2608 00e2 F31F      		adc r31,r19
 2609 00e4 EC0D      		add r30,r12
 2610 00e6 FD1D      		adc r31,r13
 2611               		.loc 1 578 16 discriminator 3 view .LVU657
 2612 00e8 2181      		ldd r18,Z+1
 2613               	.LVL180:
 2614               		.loc 1 578 16 discriminator 3 view .LVU658
 2615 00ea 1196      		adiw r26,1
 2616 00ec 2C93      		st X,r18
 2617 00ee 1197      		sbiw r26,1
 579:quantum/rgblight.c ****       led[i].g = preled[cur].g;
 2618               		.loc 1 579 7 is_stmt 1 discriminator 3 view .LVU659
 2619               		.loc 1 579 16 is_stmt 0 discriminator 3 view .LVU660
 2620 00f0 2081      		ld r18,Z
 2621 00f2 2C93      		st X,r18
 580:quantum/rgblight.c ****       led[i].b = preled[cur].b;
 2622               		.loc 1 580 7 is_stmt 1 discriminator 3 view .LVU661
 2623               		.loc 1 580 16 is_stmt 0 discriminator 3 view .LVU662
 2624 00f4 2281      		ldd r18,Z+2
 2625 00f6 1296      		adiw r26,2
 2626 00f8 2C93      		st X,r18
 2627 00fa 1297      		sbiw r26,2
 2628               	.LVL181:
 2629               		.loc 1 580 16 discriminator 3 view .LVU663
 2630 00fc 0196      		adiw r24,1
 2631               	.LVL182:
 2632               		.loc 1 580 16 discriminator 3 view .LVU664
 2633 00fe 1396      		adiw r26,3
 576:quantum/rgblight.c ****       cur = (i + RGBLIGHT_EFFECT_KNIGHT_OFFSET) % RGBLED_NUM;
 2634               		.loc 1 576 5 discriminator 3 view .LVU665
 2635 0100 8D30      		cpi r24,13
 2636 0102 9105      		cpc r25,__zero_reg__
 2637 0104 01F4      		brne .L112
 581:quantum/rgblight.c ****     }
 582:quantum/rgblight.c ****   }
 583:quantum/rgblight.c ****   rgblight_set();
 2638               		.loc 1 583 3 is_stmt 1 view .LVU666
 2639 0106 0E94 0000 		call rgblight_set
 2640               	.LVL183:
 584:quantum/rgblight.c ****   if (increment == 1) {
 2641               		.loc 1 584 3 view .LVU667
 2642               		.loc 1 584 6 is_stmt 0 view .LVU668
 2643 010a 9091 0000 		lds r25,increment.2283
 2644 010e 8091 0000 		lds r24,pos.2276
 2645 0112 9130      		cpi r25,lo8(1)
 2646 0114 01F4      		brne .L113
 585:quantum/rgblight.c ****     if (pos - 1 < 0 - RGBLIGHT_EFFECT_KNIGHT_LENGTH) {
 2647               		.loc 1 585 5 is_stmt 1 view .LVU669
 2648               		.loc 1 585 8 is_stmt 0 view .LVU670
 2649 0116 8A3F      		cpi r24,lo8(-6)
 2650 0118 04F4      		brge .L114
 586:quantum/rgblight.c ****       pos = 0 - RGBLIGHT_EFFECT_KNIGHT_LENGTH;
 2651               		.loc 1 586 7 is_stmt 1 view .LVU671
 2652               		.loc 1 586 11 is_stmt 0 view .LVU672
 2653 011a 89EF      		ldi r24,lo8(-7)
 2654 011c 8093 0000 		sts pos.2276,r24
 587:quantum/rgblight.c ****       increment = -1;
 2655               		.loc 1 587 7 is_stmt 1 view .LVU673
 2656               		.loc 1 587 17 is_stmt 0 view .LVU674
 2657 0120 8FEF      		ldi r24,lo8(-1)
 2658               	.L120:
 588:quantum/rgblight.c ****     } else {
 589:quantum/rgblight.c ****       pos -= 1;
 590:quantum/rgblight.c ****     }
 591:quantum/rgblight.c ****   } else {
 592:quantum/rgblight.c ****     if (pos + 1 > RGBLED_NUM + RGBLIGHT_EFFECT_KNIGHT_LENGTH) {
 593:quantum/rgblight.c ****       pos = RGBLED_NUM + RGBLIGHT_EFFECT_KNIGHT_LENGTH - 1;
 594:quantum/rgblight.c ****       increment = 1;
 2659               		.loc 1 594 17 view .LVU675
 2660 0122 8093 0000 		sts increment.2283,r24
 2661               	.LVL184:
 2662               	.L105:
 2663               	/* epilogue start */
 595:quantum/rgblight.c ****     } else {
 596:quantum/rgblight.c ****       pos += 1;
 597:quantum/rgblight.c ****     }
 598:quantum/rgblight.c ****   }
 599:quantum/rgblight.c **** }
 2664               		.loc 1 599 1 view .LVU676
 2665 0126 2C96      		adiw r28,12
 2666 0128 0FB6      		in __tmp_reg__,__SREG__
 2667 012a F894      		cli
 2668 012c DEBF      		out __SP_H__,r29
 2669 012e 0FBE      		out __SREG__,__tmp_reg__
 2670 0130 CDBF      		out __SP_L__,r28
 2671 0132 DF91      		pop r29
 2672 0134 CF91      		pop r28
 2673 0136 1F91      		pop r17
 2674               	.LVL185:
 2675               		.loc 1 599 1 view .LVU677
 2676 0138 0F91      		pop r16
 2677 013a FF90      		pop r15
 2678 013c EF90      		pop r14
 2679 013e DF90      		pop r13
 2680 0140 CF90      		pop r12
 2681 0142 BF90      		pop r11
 2682 0144 0895      		ret
 2683               	.LVL186:
 2684               	.L114:
 589:quantum/rgblight.c ****     }
 2685               		.loc 1 589 7 is_stmt 1 view .LVU678
 589:quantum/rgblight.c ****     }
 2686               		.loc 1 589 11 is_stmt 0 view .LVU679
 2687 0146 8150      		subi r24,lo8(-(-1))
 2688               	.L121:
 596:quantum/rgblight.c ****     }
 2689               		.loc 1 596 11 view .LVU680
 2690 0148 8093 0000 		sts pos.2276,r24
 2691 014c 00C0      		rjmp .L105
 2692               	.L113:
 592:quantum/rgblight.c ****       pos = RGBLED_NUM + RGBLIGHT_EFFECT_KNIGHT_LENGTH - 1;
 2693               		.loc 1 592 5 is_stmt 1 view .LVU681
 592:quantum/rgblight.c ****       pos = RGBLED_NUM + RGBLIGHT_EFFECT_KNIGHT_LENGTH - 1;
 2694               		.loc 1 592 8 is_stmt 0 view .LVU682
 2695 014e 8B30      		cpi r24,lo8(11)
 2696 0150 04F0      		brlt .L116
 593:quantum/rgblight.c ****       increment = 1;
 2697               		.loc 1 593 7 is_stmt 1 view .LVU683
 593:quantum/rgblight.c ****       increment = 1;
 2698               		.loc 1 593 11 is_stmt 0 view .LVU684
 2699 0152 8AE0      		ldi r24,lo8(10)
 2700 0154 8093 0000 		sts pos.2276,r24
 594:quantum/rgblight.c ****     } else {
 2701               		.loc 1 594 7 is_stmt 1 view .LVU685
 594:quantum/rgblight.c ****     } else {
 2702               		.loc 1 594 17 is_stmt 0 view .LVU686
 2703 0158 81E0      		ldi r24,lo8(1)
 2704 015a 00C0      		rjmp .L120
 2705               	.L116:
 596:quantum/rgblight.c ****     }
 2706               		.loc 1 596 7 is_stmt 1 view .LVU687
 596:quantum/rgblight.c ****     }
 2707               		.loc 1 596 11 is_stmt 0 view .LVU688
 2708 015c 8F5F      		subi r24,lo8(-(1))
 2709 015e 00C0      		rjmp .L121
 2710               		.cfi_endproc
 2711               	.LFE41:
 2713               		.section	.text.rgblight_effect_christmas,"ax",@progbits
 2714               	.global	rgblight_effect_christmas
 2716               	rgblight_effect_christmas:
 2717               	.LFB42:
 600:quantum/rgblight.c **** 
 601:quantum/rgblight.c **** 
 602:quantum/rgblight.c **** void rgblight_effect_christmas(void) {
 2718               		.loc 1 602 38 is_stmt 1 view -0
 2719               		.cfi_startproc
 2720 0000 CF93      		push r28
 2721               	.LCFI55:
 2722               		.cfi_def_cfa_offset 3
 2723               		.cfi_offset 28, -2
 2724 0002 DF93      		push r29
 2725               	.LCFI56:
 2726               		.cfi_def_cfa_offset 4
 2727               		.cfi_offset 29, -3
 2728               	/* prologue: function */
 2729               	/* frame size = 0 */
 2730               	/* stack size = 2 */
 2731               	.L__stack_usage = 2
 603:quantum/rgblight.c ****   static uint16_t current_offset = 0;
 2732               		.loc 1 603 3 view .LVU690
 604:quantum/rgblight.c ****   static uint16_t last_timer = 0;
 2733               		.loc 1 604 3 view .LVU691
 605:quantum/rgblight.c ****   uint16_t hue;
 2734               		.loc 1 605 3 view .LVU692
 606:quantum/rgblight.c ****   uint8_t i;
 2735               		.loc 1 606 3 view .LVU693
 607:quantum/rgblight.c ****   if (timer_elapsed(last_timer) < 1000) {
 2736               		.loc 1 607 3 view .LVU694
 2737               		.loc 1 607 7 is_stmt 0 view .LVU695
 2738 0004 8091 0000 		lds r24,last_timer.2300
 2739 0008 9091 0000 		lds r25,last_timer.2300+1
 2740 000c 0E94 0000 		call timer_elapsed
 2741               	.LVL187:
 2742               		.loc 1 607 6 view .LVU696
 2743 0010 883E      		cpi r24,-24
 2744 0012 9340      		sbci r25,3
 2745 0014 00F0      		brlo .L122
 608:quantum/rgblight.c ****     return;
 609:quantum/rgblight.c ****   }
 610:quantum/rgblight.c ****   last_timer = timer_read();
 2746               		.loc 1 610 3 is_stmt 1 view .LVU697
 2747               		.loc 1 610 16 is_stmt 0 view .LVU698
 2748 0016 0E94 0000 		call timer_read
 2749               	.LVL188:
 2750               		.loc 1 610 14 view .LVU699
 2751 001a 9093 0000 		sts last_timer.2300+1,r25
 2752 001e 8093 0000 		sts last_timer.2300,r24
 611:quantum/rgblight.c ****   current_offset = (current_offset + 1) % 2;
 2753               		.loc 1 611 3 is_stmt 1 view .LVU700
 2754               		.loc 1 611 36 is_stmt 0 view .LVU701
 2755 0022 8091 0000 		lds r24,current_offset.2299
 2756 0026 9091 0000 		lds r25,current_offset.2299+1
 2757 002a 0196      		adiw r24,1
 2758               		.loc 1 611 41 view .LVU702
 2759 002c 8170      		andi r24,1
 2760 002e 9927      		clr r25
 2761               		.loc 1 611 18 view .LVU703
 2762 0030 9093 0000 		sts current_offset.2299+1,r25
 2763 0034 8093 0000 		sts current_offset.2299,r24
 612:quantum/rgblight.c ****   for (i = 0; i < RGBLED_NUM; i++) {
 2764               		.loc 1 612 3 is_stmt 1 view .LVU704
 2765               	.LVL189:
 2766               		.loc 1 612 3 is_stmt 0 view .LVU705
 2767 0038 C0E0      		ldi r28,lo8(led)
 2768 003a D0E0      		ldi r29,hi8(led)
 2769               	.LVL190:
 2770               	.L124:
 613:quantum/rgblight.c ****     hue = 0 + ((RGBLED_NUM * (i + current_offset)) % 2) * 80;
 2771               		.loc 1 613 5 is_stmt 1 discriminator 3 view .LVU706
 614:quantum/rgblight.c ****     sethsv(hue, rgblight_config.sat, rgblight_config.val, (LED_TYPE *)&led[i]);
 2772               		.loc 1 614 5 discriminator 3 view .LVU707
 2773 003c 9E01      		movw r18,r28
 2774 003e 4091 0000 		lds r20,rgblight_config+3
 2775 0042 6091 0000 		lds r22,rgblight_config+2
 2776 0046 90E0      		ldi r25,0
 2777 0048 80E0      		ldi r24,0
 2778 004a 0E94 0000 		call sethsv
 2779               	.LVL191:
 2780               		.loc 1 614 5 is_stmt 0 discriminator 3 view .LVU708
 2781 004e 2396      		adiw r28,3
 612:quantum/rgblight.c ****   for (i = 0; i < RGBLED_NUM; i++) {
 2782               		.loc 1 612 3 discriminator 3 view .LVU709
 2783 0050 80E0      		ldi r24,hi8(led+12)
 2784 0052 C030      		cpi r28,lo8(led+12)
 2785 0054 D807      		cpc r29,r24
 2786 0056 01F4      		brne .L124
 615:quantum/rgblight.c ****   }
 616:quantum/rgblight.c ****   rgblight_set();
 2787               		.loc 1 616 3 is_stmt 1 view .LVU710
 2788               	/* epilogue start */
 617:quantum/rgblight.c **** }
 2789               		.loc 1 617 1 is_stmt 0 view .LVU711
 2790 0058 DF91      		pop r29
 2791 005a CF91      		pop r28
 616:quantum/rgblight.c **** }
 2792               		.loc 1 616 3 view .LVU712
 2793 005c 0C94 0000 		jmp rgblight_set
 2794               	.LVL192:
 2795               	.L122:
 2796               	/* epilogue start */
 2797               		.loc 1 617 1 view .LVU713
 2798 0060 DF91      		pop r29
 2799 0062 CF91      		pop r28
 2800 0064 0895      		ret
 2801               		.cfi_endproc
 2802               	.LFE42:
 2804               		.section	.text.rgblight_task,"ax",@progbits
 2805               	.global	rgblight_task
 2807               	rgblight_task:
 2808               	.LFB36:
 435:quantum/rgblight.c ****   if (rgblight_timer_enabled) {
 2809               		.loc 1 435 26 is_stmt 1 view -0
 2810               		.cfi_startproc
 2811               	/* prologue: function */
 2812               	/* frame size = 0 */
 2813               	/* stack size = 0 */
 2814               	.L__stack_usage = 0
 436:quantum/rgblight.c ****     // mode = 1, static light, do nothing here
 2815               		.loc 1 436 3 view .LVU715
 436:quantum/rgblight.c ****     // mode = 1, static light, do nothing here
 2816               		.loc 1 436 6 is_stmt 0 view .LVU716
 2817 0000 8091 0000 		lds r24,rgblight_timer_enabled
 2818 0004 8823      		tst r24
 2819 0006 01F0      		breq .L126
 438:quantum/rgblight.c ****       // mode = 2 to 5, breathing mode
 2820               		.loc 1 438 5 is_stmt 1 view .LVU717
 438:quantum/rgblight.c ****       // mode = 2 to 5, breathing mode
 2821               		.loc 1 438 24 is_stmt 0 view .LVU718
 2822 0008 8091 0000 		lds r24,rgblight_config
 2823 000c 8695      		lsr r24
 2824 000e 8F73      		andi r24,lo8(63)
 438:quantum/rgblight.c ****       // mode = 2 to 5, breathing mode
 2825               		.loc 1 438 35 view .LVU719
 2826 0010 9EE3      		ldi r25,lo8(62)
 2827 0012 980F      		add r25,r24
 2828 0014 9F73      		andi r25,lo8(63)
 438:quantum/rgblight.c ****       // mode = 2 to 5, breathing mode
 2829               		.loc 1 438 8 view .LVU720
 2830 0016 9430      		cpi r25,lo8(4)
 2831 0018 00F4      		brsh .L128
 440:quantum/rgblight.c ****     } else if (rgblight_config.mode >= 6 && rgblight_config.mode <= 8) {
 2832               		.loc 1 440 7 is_stmt 1 view .LVU721
 2833 001a 8250      		subi r24,lo8(-(-2))
 2834 001c 0C94 0000 		jmp rgblight_effect_breathing
 2835               	.LVL193:
 2836               	.L128:
 441:quantum/rgblight.c ****       // mode = 6 to 8, rainbow mood mod
 2837               		.loc 1 441 12 view .LVU722
 441:quantum/rgblight.c ****       // mode = 6 to 8, rainbow mood mod
 2838               		.loc 1 441 42 is_stmt 0 view .LVU723
 2839 0020 9AE3      		ldi r25,lo8(58)
 2840 0022 980F      		add r25,r24
 2841 0024 9F73      		andi r25,lo8(63)
 441:quantum/rgblight.c ****       // mode = 6 to 8, rainbow mood mod
 2842               		.loc 1 441 15 view .LVU724
 2843 0026 9330      		cpi r25,lo8(3)
 2844 0028 00F4      		brsh .L129
 443:quantum/rgblight.c ****     } else if (rgblight_config.mode >= 9 && rgblight_config.mode <= 14) {
 2845               		.loc 1 443 7 is_stmt 1 view .LVU725
 2846 002a 8650      		subi r24,lo8(-(-6))
 2847 002c 0C94 0000 		jmp rgblight_effect_rainbow_mood
 2848               	.LVL194:
 2849               	.L129:
 444:quantum/rgblight.c ****       // mode = 9 to 14, rainbow swirl mode
 2850               		.loc 1 444 12 view .LVU726
 444:quantum/rgblight.c ****       // mode = 9 to 14, rainbow swirl mode
 2851               		.loc 1 444 42 is_stmt 0 view .LVU727
 2852 0030 97E3      		ldi r25,lo8(55)
 2853 0032 980F      		add r25,r24
 2854 0034 9F73      		andi r25,lo8(63)
 444:quantum/rgblight.c ****       // mode = 9 to 14, rainbow swirl mode
 2855               		.loc 1 444 15 view .LVU728
 2856 0036 9630      		cpi r25,lo8(6)
 2857 0038 00F4      		brsh .L130
 446:quantum/rgblight.c ****     } else if (rgblight_config.mode >= 15 && rgblight_config.mode <= 20) {
 2858               		.loc 1 446 7 is_stmt 1 view .LVU729
 2859 003a 8950      		subi r24,lo8(-(-9))
 2860 003c 0C94 0000 		jmp rgblight_effect_rainbow_swirl
 2861               	.LVL195:
 2862               	.L130:
 447:quantum/rgblight.c ****       // mode = 15 to 20, snake mode
 2863               		.loc 1 447 12 view .LVU730
 447:quantum/rgblight.c ****       // mode = 15 to 20, snake mode
 2864               		.loc 1 447 43 is_stmt 0 view .LVU731
 2865 0040 91E3      		ldi r25,lo8(49)
 2866 0042 980F      		add r25,r24
 2867 0044 9F73      		andi r25,lo8(63)
 447:quantum/rgblight.c ****       // mode = 15 to 20, snake mode
 2868               		.loc 1 447 15 view .LVU732
 2869 0046 9630      		cpi r25,lo8(6)
 2870 0048 00F4      		brsh .L131
 449:quantum/rgblight.c ****     } else if (rgblight_config.mode >= 21 && rgblight_config.mode <= 23) {
 2871               		.loc 1 449 7 is_stmt 1 view .LVU733
 2872 004a 8F50      		subi r24,lo8(-(-15))
 2873 004c 0C94 0000 		jmp rgblight_effect_snake
 2874               	.LVL196:
 2875               	.L131:
 450:quantum/rgblight.c ****       // mode = 21 to 23, knight mode
 2876               		.loc 1 450 12 view .LVU734
 450:quantum/rgblight.c ****       // mode = 21 to 23, knight mode
 2877               		.loc 1 450 43 is_stmt 0 view .LVU735
 2878 0050 9BE2      		ldi r25,lo8(43)
 2879 0052 980F      		add r25,r24
 2880 0054 9F73      		andi r25,lo8(63)
 450:quantum/rgblight.c ****       // mode = 21 to 23, knight mode
 2881               		.loc 1 450 15 view .LVU736
 2882 0056 9330      		cpi r25,lo8(3)
 2883 0058 00F4      		brsh .L132
 452:quantum/rgblight.c ****     } else {
 2884               		.loc 1 452 7 is_stmt 1 view .LVU737
 2885 005a 8551      		subi r24,lo8(-(-21))
 2886 005c 0C94 0000 		jmp rgblight_effect_knight
 2887               	.LVL197:
 2888               	.L132:
 455:quantum/rgblight.c ****     }
 2889               		.loc 1 455 7 view .LVU738
 2890 0060 0C94 0000 		jmp rgblight_effect_christmas
 2891               	.LVL198:
 2892               	.L126:
 2893               	/* epilogue start */
 458:quantum/rgblight.c **** 
 2894               		.loc 1 458 1 is_stmt 0 view .LVU739
 2895 0064 0895      		ret
 2896               		.cfi_endproc
 2897               	.LFE36:
 2899               		.section	.bss.current_offset.2299,"aw",@nobits
 2902               	current_offset.2299:
 2903 0000 0000      		.zero	2
 2904               		.section	.bss.last_timer.2300,"aw",@nobits
 2907               	last_timer.2300:
 2908 0000 0000      		.zero	2
 2909               		.section	.bss.pos.2276,"aw",@nobits
 2912               	pos.2276:
 2913 0000 00        		.zero	1
 2914               		.section	.data.increment.2283,"aw"
 2917               	increment.2283:
 2918 0000 FF        		.byte	-1
 2919               		.section	.bss.last_timer.2277,"aw",@nobits
 2922               	last_timer.2277:
 2923 0000 0000      		.zero	2
 2924               		.section	.bss.pos.2258,"aw",@nobits
 2927               	pos.2258:
 2928 0000 00        		.zero	1
 2929               		.section	.bss.last_timer.2259,"aw",@nobits
 2932               	last_timer.2259:
 2933 0000 0000      		.zero	2
 2934               		.section	.bss.current_hue.2245,"aw",@nobits
 2937               	current_hue.2245:
 2938 0000 0000      		.zero	2
 2939               		.section	.bss.last_timer.2246,"aw",@nobits
 2942               	last_timer.2246:
 2943 0000 0000      		.zero	2
 2944               		.section	.bss.current_hue.2237,"aw",@nobits
 2947               	current_hue.2237:
 2948 0000 0000      		.zero	2
 2949               		.section	.bss.last_timer.2238,"aw",@nobits
 2952               	last_timer.2238:
 2953 0000 0000      		.zero	2
 2954               		.section	.bss.pos.2226,"aw",@nobits
 2957               	pos.2226:
 2958 0000 00        		.zero	1
 2959               		.section	.bss.last_timer.2227,"aw",@nobits
 2962               	last_timer.2227:
 2963 0000 0000      		.zero	2
 2964               	.global	rgblight_timer_enabled
 2965               		.section	.bss.rgblight_timer_enabled,"aw",@nobits
 2968               	rgblight_timer_enabled:
 2969 0000 00        		.zero	1
 2970               	.global	rgblight_inited
 2971               		.section	.bss.rgblight_inited,"aw",@nobits
 2974               	rgblight_inited:
 2975 0000 00        		.zero	1
 2976               		.comm	led,12,1
 2977               		.comm	inmem_config,4,1
 2978               		.comm	rgblight_config,4,1
 2979               		.weak	RGBLED_KNIGHT_INTERVALS
 2980               		.section	.progmem.data.RGBLED_KNIGHT_INTERVALS,"a"
 2983               	RGBLED_KNIGHT_INTERVALS:
 2984 0000 64        		.byte	100
 2985 0001 32        		.byte	50
 2986 0002 14        		.byte	20
 2987               		.weak	RGBLED_SNAKE_INTERVALS
 2988               		.section	.progmem.data.RGBLED_SNAKE_INTERVALS,"a"
 2991               	RGBLED_SNAKE_INTERVALS:
 2992 0000 64        		.byte	100
 2993 0001 32        		.byte	50
 2994 0002 14        		.byte	20
 2995               		.weak	RGBLED_RAINBOW_SWIRL_INTERVALS
 2996               		.section	.progmem.data.RGBLED_RAINBOW_SWIRL_INTERVALS,"a"
 2999               	RGBLED_RAINBOW_SWIRL_INTERVALS:
 3000 0000 64        		.byte	100
 3001 0001 32        		.byte	50
 3002 0002 14        		.byte	20
 3003               		.weak	RGBLED_RAINBOW_MOOD_INTERVALS
 3004               		.section	.progmem.data.RGBLED_RAINBOW_MOOD_INTERVALS,"a"
 3007               	RGBLED_RAINBOW_MOOD_INTERVALS:
 3008 0000 78        		.byte	120
 3009 0001 3C        		.byte	60
 3010 0002 1E        		.byte	30
 3011               		.weak	RGBLED_BREATHING_INTERVALS
 3012               		.section	.progmem.data.RGBLED_BREATHING_INTERVALS,"a"
 3015               	RGBLED_BREATHING_INTERVALS:
 3016 0000 1E        		.byte	30
 3017 0001 14        		.byte	20
 3018 0002 0A        		.byte	10
 3019 0003 05        		.byte	5
 3020               	.global	RGBLED_BREATHING_TABLE
 3021               		.section	.progmem.data.RGBLED_BREATHING_TABLE,"a"
 3024               	RGBLED_BREATHING_TABLE:
 3025 0000 00        		.byte	0
 3026 0001 00        		.byte	0
 3027 0002 00        		.byte	0
 3028 0003 00        		.byte	0
 3029 0004 01        		.byte	1
 3030 0005 01        		.byte	1
 3031 0006 01        		.byte	1
 3032 0007 02        		.byte	2
 3033 0008 02        		.byte	2
 3034 0009 03        		.byte	3
 3035 000a 04        		.byte	4
 3036 000b 05        		.byte	5
 3037 000c 05        		.byte	5
 3038 000d 06        		.byte	6
 3039 000e 07        		.byte	7
 3040 000f 09        		.byte	9
 3041 0010 0A        		.byte	10
 3042 0011 0B        		.byte	11
 3043 0012 0C        		.byte	12
 3044 0013 0E        		.byte	14
 3045 0014 0F        		.byte	15
 3046 0015 11        		.byte	17
 3047 0016 12        		.byte	18
 3048 0017 14        		.byte	20
 3049 0018 15        		.byte	21
 3050 0019 17        		.byte	23
 3051 001a 19        		.byte	25
 3052 001b 1B        		.byte	27
 3053 001c 1D        		.byte	29
 3054 001d 1F        		.byte	31
 3055 001e 21        		.byte	33
 3056 001f 23        		.byte	35
 3057 0020 25        		.byte	37
 3058 0021 28        		.byte	40
 3059 0022 2A        		.byte	42
 3060 0023 2C        		.byte	44
 3061 0024 2F        		.byte	47
 3062 0025 31        		.byte	49
 3063 0026 34        		.byte	52
 3064 0027 36        		.byte	54
 3065 0028 39        		.byte	57
 3066 0029 3B        		.byte	59
 3067 002a 3E        		.byte	62
 3068 002b 41        		.byte	65
 3069 002c 43        		.byte	67
 3070 002d 46        		.byte	70
 3071 002e 49        		.byte	73
 3072 002f 4C        		.byte	76
 3073 0030 4F        		.byte	79
 3074 0031 52        		.byte	82
 3075 0032 55        		.byte	85
 3076 0033 58        		.byte	88
 3077 0034 5A        		.byte	90
 3078 0035 5D        		.byte	93
 3079 0036 61        		.byte	97
 3080 0037 64        		.byte	100
 3081 0038 67        		.byte	103
 3082 0039 6A        		.byte	106
 3083 003a 6D        		.byte	109
 3084 003b 70        		.byte	112
 3085 003c 73        		.byte	115
 3086 003d 76        		.byte	118
 3087 003e 79        		.byte	121
 3088 003f 7C        		.byte	124
 3089 0040 7F        		.byte	127
 3090 0041 83        		.byte	-125
 3091 0042 86        		.byte	-122
 3092 0043 89        		.byte	-119
 3093 0044 8C        		.byte	-116
 3094 0045 8F        		.byte	-113
 3095 0046 92        		.byte	-110
 3096 0047 95        		.byte	-107
 3097 0048 98        		.byte	-104
 3098 0049 9B        		.byte	-101
 3099 004a 9E        		.byte	-98
 3100 004b A2        		.byte	-94
 3101 004c A5        		.byte	-91
 3102 004d A7        		.byte	-89
 3103 004e AA        		.byte	-86
 3104 004f AD        		.byte	-83
 3105 0050 B0        		.byte	-80
 3106 0051 B3        		.byte	-77
 3107 0052 B6        		.byte	-74
 3108 0053 B9        		.byte	-71
 3109 0054 BC        		.byte	-68
 3110 0055 BE        		.byte	-66
 3111 0056 C1        		.byte	-63
 3112 0057 C4        		.byte	-60
 3113 0058 C6        		.byte	-58
 3114 0059 C9        		.byte	-55
 3115 005a CB        		.byte	-53
 3116 005b CE        		.byte	-50
 3117 005c D0        		.byte	-48
 3118 005d D3        		.byte	-45
 3119 005e D5        		.byte	-43
 3120 005f D7        		.byte	-41
 3121 0060 DA        		.byte	-38
 3122 0061 DC        		.byte	-36
 3123 0062 DE        		.byte	-34
 3124 0063 E0        		.byte	-32
 3125 0064 E2        		.byte	-30
 3126 0065 E4        		.byte	-28
 3127 0066 E6        		.byte	-26
 3128 0067 E8        		.byte	-24
 3129 0068 EA        		.byte	-22
 3130 0069 EB        		.byte	-21
 3131 006a ED        		.byte	-19
 3132 006b EE        		.byte	-18
 3133 006c F0        		.byte	-16
 3134 006d F1        		.byte	-15
 3135 006e F3        		.byte	-13
 3136 006f F4        		.byte	-12
 3137 0070 F5        		.byte	-11
 3138 0071 F6        		.byte	-10
 3139 0072 F8        		.byte	-8
 3140 0073 F9        		.byte	-7
 3141 0074 FA        		.byte	-6
 3142 0075 FA        		.byte	-6
 3143 0076 FB        		.byte	-5
 3144 0077 FC        		.byte	-4
 3145 0078 FD        		.byte	-3
 3146 0079 FD        		.byte	-3
 3147 007a FE        		.byte	-2
 3148 007b FE        		.byte	-2
 3149 007c FE        		.byte	-2
 3150 007d FF        		.byte	-1
 3151 007e FF        		.byte	-1
 3152 007f FF        		.byte	-1
 3153 0080 FF        		.byte	-1
 3154 0081 FF        		.byte	-1
 3155 0082 FF        		.byte	-1
 3156 0083 FF        		.byte	-1
 3157 0084 FE        		.byte	-2
 3158 0085 FE        		.byte	-2
 3159 0086 FE        		.byte	-2
 3160 0087 FD        		.byte	-3
 3161 0088 FD        		.byte	-3
 3162 0089 FC        		.byte	-4
 3163 008a FB        		.byte	-5
 3164 008b FA        		.byte	-6
 3165 008c FA        		.byte	-6
 3166 008d F9        		.byte	-7
 3167 008e F8        		.byte	-8
 3168 008f F6        		.byte	-10
 3169 0090 F5        		.byte	-11
 3170 0091 F4        		.byte	-12
 3171 0092 F3        		.byte	-13
 3172 0093 F1        		.byte	-15
 3173 0094 F0        		.byte	-16
 3174 0095 EE        		.byte	-18
 3175 0096 ED        		.byte	-19
 3176 0097 EB        		.byte	-21
 3177 0098 EA        		.byte	-22
 3178 0099 E8        		.byte	-24
 3179 009a E6        		.byte	-26
 3180 009b E4        		.byte	-28
 3181 009c E2        		.byte	-30
 3182 009d E0        		.byte	-32
 3183 009e DE        		.byte	-34
 3184 009f DC        		.byte	-36
 3185 00a0 DA        		.byte	-38
 3186 00a1 D7        		.byte	-41
 3187 00a2 D5        		.byte	-43
 3188 00a3 D3        		.byte	-45
 3189 00a4 D0        		.byte	-48
 3190 00a5 CE        		.byte	-50
 3191 00a6 CB        		.byte	-53
 3192 00a7 C9        		.byte	-55
 3193 00a8 C6        		.byte	-58
 3194 00a9 C4        		.byte	-60
 3195 00aa C1        		.byte	-63
 3196 00ab BE        		.byte	-66
 3197 00ac BC        		.byte	-68
 3198 00ad B9        		.byte	-71
 3199 00ae B6        		.byte	-74
 3200 00af B3        		.byte	-77
 3201 00b0 B0        		.byte	-80
 3202 00b1 AD        		.byte	-83
 3203 00b2 AA        		.byte	-86
 3204 00b3 A7        		.byte	-89
 3205 00b4 A5        		.byte	-91
 3206 00b5 A2        		.byte	-94
 3207 00b6 9E        		.byte	-98
 3208 00b7 9B        		.byte	-101
 3209 00b8 98        		.byte	-104
 3210 00b9 95        		.byte	-107
 3211 00ba 92        		.byte	-110
 3212 00bb 8F        		.byte	-113
 3213 00bc 8C        		.byte	-116
 3214 00bd 89        		.byte	-119
 3215 00be 86        		.byte	-122
 3216 00bf 83        		.byte	-125
 3217 00c0 80        		.byte	-128
 3218 00c1 7C        		.byte	124
 3219 00c2 79        		.byte	121
 3220 00c3 76        		.byte	118
 3221 00c4 73        		.byte	115
 3222 00c5 70        		.byte	112
 3223 00c6 6D        		.byte	109
 3224 00c7 6A        		.byte	106
 3225 00c8 67        		.byte	103
 3226 00c9 64        		.byte	100
 3227 00ca 61        		.byte	97
 3228 00cb 5D        		.byte	93
 3229 00cc 5A        		.byte	90
 3230 00cd 58        		.byte	88
 3231 00ce 55        		.byte	85
 3232 00cf 52        		.byte	82
 3233 00d0 4F        		.byte	79
 3234 00d1 4C        		.byte	76
 3235 00d2 49        		.byte	73
 3236 00d3 46        		.byte	70
 3237 00d4 43        		.byte	67
 3238 00d5 41        		.byte	65
 3239 00d6 3E        		.byte	62
 3240 00d7 3B        		.byte	59
 3241 00d8 39        		.byte	57
 3242 00d9 36        		.byte	54
 3243 00da 34        		.byte	52
 3244 00db 31        		.byte	49
 3245 00dc 2F        		.byte	47
 3246 00dd 2C        		.byte	44
 3247 00de 2A        		.byte	42
 3248 00df 28        		.byte	40
 3249 00e0 25        		.byte	37
 3250 00e1 23        		.byte	35
 3251 00e2 21        		.byte	33
 3252 00e3 1F        		.byte	31
 3253 00e4 1D        		.byte	29
 3254 00e5 1B        		.byte	27
 3255 00e6 19        		.byte	25
 3256 00e7 17        		.byte	23
 3257 00e8 15        		.byte	21
 3258 00e9 14        		.byte	20
 3259 00ea 12        		.byte	18
 3260 00eb 11        		.byte	17
 3261 00ec 0F        		.byte	15
 3262 00ed 0E        		.byte	14
 3263 00ee 0C        		.byte	12
 3264 00ef 0B        		.byte	11
 3265 00f0 0A        		.byte	10
 3266 00f1 09        		.byte	9
 3267 00f2 07        		.byte	7
 3268 00f3 06        		.byte	6
 3269 00f4 05        		.byte	5
 3270 00f5 05        		.byte	5
 3271 00f6 04        		.byte	4
 3272 00f7 03        		.byte	3
 3273 00f8 02        		.byte	2
 3274 00f9 02        		.byte	2
 3275 00fa 01        		.byte	1
 3276 00fb 01        		.byte	1
 3277 00fc 01        		.byte	1
 3278 00fd 00        		.byte	0
 3279 00fe 00        		.byte	0
 3280 00ff 00        		.byte	0
 3281               	.global	DIM_CURVE
 3282               		.section	.progmem.data.DIM_CURVE,"a"
 3285               	DIM_CURVE:
 3286 0000 00        		.byte	0
 3287 0001 00        		.byte	0
 3288 0002 00        		.byte	0
 3289 0003 00        		.byte	0
 3290 0004 00        		.byte	0
 3291 0005 01        		.byte	1
 3292 0006 01        		.byte	1
 3293 0007 01        		.byte	1
 3294 0008 01        		.byte	1
 3295 0009 01        		.byte	1
 3296 000a 01        		.byte	1
 3297 000b 01        		.byte	1
 3298 000c 01        		.byte	1
 3299 000d 01        		.byte	1
 3300 000e 02        		.byte	2
 3301 000f 02        		.byte	2
 3302 0010 02        		.byte	2
 3303 0011 02        		.byte	2
 3304 0012 02        		.byte	2
 3305 0013 02        		.byte	2
 3306 0014 02        		.byte	2
 3307 0015 02        		.byte	2
 3308 0016 02        		.byte	2
 3309 0017 03        		.byte	3
 3310 0018 03        		.byte	3
 3311 0019 03        		.byte	3
 3312 001a 03        		.byte	3
 3313 001b 03        		.byte	3
 3314 001c 03        		.byte	3
 3315 001d 03        		.byte	3
 3316 001e 03        		.byte	3
 3317 001f 04        		.byte	4
 3318 0020 04        		.byte	4
 3319 0021 04        		.byte	4
 3320 0022 04        		.byte	4
 3321 0023 04        		.byte	4
 3322 0024 04        		.byte	4
 3323 0025 05        		.byte	5
 3324 0026 05        		.byte	5
 3325 0027 05        		.byte	5
 3326 0028 05        		.byte	5
 3327 0029 05        		.byte	5
 3328 002a 06        		.byte	6
 3329 002b 06        		.byte	6
 3330 002c 06        		.byte	6
 3331 002d 06        		.byte	6
 3332 002e 06        		.byte	6
 3333 002f 07        		.byte	7
 3334 0030 07        		.byte	7
 3335 0031 07        		.byte	7
 3336 0032 07        		.byte	7
 3337 0033 08        		.byte	8
 3338 0034 08        		.byte	8
 3339 0035 08        		.byte	8
 3340 0036 08        		.byte	8
 3341 0037 09        		.byte	9
 3342 0038 09        		.byte	9
 3343 0039 09        		.byte	9
 3344 003a 0A        		.byte	10
 3345 003b 0A        		.byte	10
 3346 003c 0A        		.byte	10
 3347 003d 0A        		.byte	10
 3348 003e 0B        		.byte	11
 3349 003f 0B        		.byte	11
 3350 0040 0B        		.byte	11
 3351 0041 0C        		.byte	12
 3352 0042 0C        		.byte	12
 3353 0043 0C        		.byte	12
 3354 0044 0D        		.byte	13
 3355 0045 0D        		.byte	13
 3356 0046 0D        		.byte	13
 3357 0047 0E        		.byte	14
 3358 0048 0E        		.byte	14
 3359 0049 0F        		.byte	15
 3360 004a 0F        		.byte	15
 3361 004b 0F        		.byte	15
 3362 004c 10        		.byte	16
 3363 004d 10        		.byte	16
 3364 004e 11        		.byte	17
 3365 004f 11        		.byte	17
 3366 0050 11        		.byte	17
 3367 0051 12        		.byte	18
 3368 0052 12        		.byte	18
 3369 0053 13        		.byte	19
 3370 0054 13        		.byte	19
 3371 0055 14        		.byte	20
 3372 0056 14        		.byte	20
 3373 0057 15        		.byte	21
 3374 0058 15        		.byte	21
 3375 0059 16        		.byte	22
 3376 005a 16        		.byte	22
 3377 005b 17        		.byte	23
 3378 005c 17        		.byte	23
 3379 005d 18        		.byte	24
 3380 005e 18        		.byte	24
 3381 005f 19        		.byte	25
 3382 0060 19        		.byte	25
 3383 0061 1A        		.byte	26
 3384 0062 1A        		.byte	26
 3385 0063 1B        		.byte	27
 3386 0064 1C        		.byte	28
 3387 0065 1C        		.byte	28
 3388 0066 1D        		.byte	29
 3389 0067 1D        		.byte	29
 3390 0068 1E        		.byte	30
 3391 0069 1F        		.byte	31
 3392 006a 1F        		.byte	31
 3393 006b 20        		.byte	32
 3394 006c 20        		.byte	32
 3395 006d 21        		.byte	33
 3396 006e 22        		.byte	34
 3397 006f 22        		.byte	34
 3398 0070 23        		.byte	35
 3399 0071 24        		.byte	36
 3400 0072 25        		.byte	37
 3401 0073 25        		.byte	37
 3402 0074 26        		.byte	38
 3403 0075 27        		.byte	39
 3404 0076 27        		.byte	39
 3405 0077 28        		.byte	40
 3406 0078 29        		.byte	41
 3407 0079 2A        		.byte	42
 3408 007a 2B        		.byte	43
 3409 007b 2B        		.byte	43
 3410 007c 2C        		.byte	44
 3411 007d 2D        		.byte	45
 3412 007e 2E        		.byte	46
 3413 007f 2F        		.byte	47
 3414 0080 2F        		.byte	47
 3415 0081 30        		.byte	48
 3416 0082 31        		.byte	49
 3417 0083 32        		.byte	50
 3418 0084 33        		.byte	51
 3419 0085 34        		.byte	52
 3420 0086 35        		.byte	53
 3421 0087 36        		.byte	54
 3422 0088 36        		.byte	54
 3423 0089 37        		.byte	55
 3424 008a 38        		.byte	56
 3425 008b 39        		.byte	57
 3426 008c 3A        		.byte	58
 3427 008d 3B        		.byte	59
 3428 008e 3C        		.byte	60
 3429 008f 3D        		.byte	61
 3430 0090 3E        		.byte	62
 3431 0091 3F        		.byte	63
 3432 0092 40        		.byte	64
 3433 0093 41        		.byte	65
 3434 0094 42        		.byte	66
 3435 0095 43        		.byte	67
 3436 0096 44        		.byte	68
 3437 0097 46        		.byte	70
 3438 0098 47        		.byte	71
 3439 0099 48        		.byte	72
 3440 009a 49        		.byte	73
 3441 009b 4A        		.byte	74
 3442 009c 4B        		.byte	75
 3443 009d 4C        		.byte	76
 3444 009e 4D        		.byte	77
 3445 009f 4F        		.byte	79
 3446 00a0 50        		.byte	80
 3447 00a1 51        		.byte	81
 3448 00a2 52        		.byte	82
 3449 00a3 53        		.byte	83
 3450 00a4 55        		.byte	85
 3451 00a5 56        		.byte	86
 3452 00a6 57        		.byte	87
 3453 00a7 58        		.byte	88
 3454 00a8 5A        		.byte	90
 3455 00a9 5B        		.byte	91
 3456 00aa 5C        		.byte	92
 3457 00ab 5E        		.byte	94
 3458 00ac 5F        		.byte	95
 3459 00ad 60        		.byte	96
 3460 00ae 62        		.byte	98
 3461 00af 63        		.byte	99
 3462 00b0 64        		.byte	100
 3463 00b1 66        		.byte	102
 3464 00b2 67        		.byte	103
 3465 00b3 69        		.byte	105
 3466 00b4 6A        		.byte	106
 3467 00b5 6C        		.byte	108
 3468 00b6 6D        		.byte	109
 3469 00b7 6E        		.byte	110
 3470 00b8 70        		.byte	112
 3471 00b9 71        		.byte	113
 3472 00ba 73        		.byte	115
 3473 00bb 74        		.byte	116
 3474 00bc 76        		.byte	118
 3475 00bd 78        		.byte	120
 3476 00be 79        		.byte	121
 3477 00bf 7B        		.byte	123
 3478 00c0 7C        		.byte	124
 3479 00c1 7E        		.byte	126
 3480 00c2 80        		.byte	-128
 3481 00c3 81        		.byte	-127
 3482 00c4 83        		.byte	-125
 3483 00c5 84        		.byte	-124
 3484 00c6 86        		.byte	-122
 3485 00c7 88        		.byte	-120
 3486 00c8 8A        		.byte	-118
 3487 00c9 8B        		.byte	-117
 3488 00ca 8D        		.byte	-115
 3489 00cb 8F        		.byte	-113
 3490 00cc 91        		.byte	-111
 3491 00cd 92        		.byte	-110
 3492 00ce 94        		.byte	-108
 3493 00cf 96        		.byte	-106
 3494 00d0 98        		.byte	-104
 3495 00d1 9A        		.byte	-102
 3496 00d2 9B        		.byte	-101
 3497 00d3 9D        		.byte	-99
 3498 00d4 9F        		.byte	-97
 3499 00d5 A1        		.byte	-95
 3500 00d6 A3        		.byte	-93
 3501 00d7 A5        		.byte	-91
 3502 00d8 A7        		.byte	-89
 3503 00d9 A9        		.byte	-87
 3504 00da AB        		.byte	-85
 3505 00db AD        		.byte	-83
 3506 00dc AF        		.byte	-81
 3507 00dd B1        		.byte	-79
 3508 00de B3        		.byte	-77
 3509 00df B5        		.byte	-75
 3510 00e0 B7        		.byte	-73
 3511 00e1 B9        		.byte	-71
 3512 00e2 BB        		.byte	-69
 3513 00e3 BD        		.byte	-67
 3514 00e4 BF        		.byte	-65
 3515 00e5 C1        		.byte	-63
 3516 00e6 C4        		.byte	-60
 3517 00e7 C6        		.byte	-58
 3518 00e8 C8        		.byte	-56
 3519 00e9 CA        		.byte	-54
 3520 00ea CC        		.byte	-52
 3521 00eb CF        		.byte	-49
 3522 00ec D1        		.byte	-47
 3523 00ed D3        		.byte	-45
 3524 00ee D6        		.byte	-42
 3525 00ef D8        		.byte	-40
 3526 00f0 DA        		.byte	-38
 3527 00f1 DC        		.byte	-36
 3528 00f2 DF        		.byte	-33
 3529 00f3 E1        		.byte	-31
 3530 00f4 E4        		.byte	-28
 3531 00f5 E6        		.byte	-26
 3532 00f6 E8        		.byte	-24
 3533 00f7 EB        		.byte	-21
 3534 00f8 ED        		.byte	-19
 3535 00f9 F0        		.byte	-16
 3536 00fa F2        		.byte	-14
 3537 00fb F5        		.byte	-11
 3538 00fc F7        		.byte	-9
 3539 00fd FA        		.byte	-6
 3540 00fe FC        		.byte	-4
 3541 00ff FF        		.byte	-1
 3542               		.text
 3543               	.Letext0:
 3544               		.file 3 "c:\\msys64\\home\\pc-office\\qmk_utils\\avr8-gnu-toolchain\\avr\\include\\stdint.h"
 3545               		.file 4 "quantum/light_ws2812.h"
 3546               		.file 5 "./tmk_core/common/timer.h"
 3547               		.file 6 "quantum/rgblight.h"
 3548               		.file 7 "./tmk_core/common/debug.h"
 3549               		.file 8 "./tmk_core/common/eeconfig.h"
 3550               		.file 9 "c:\\msys64\\home\\pc-office\\qmk_utils\\avr8-gnu-toolchain\\avr\\include\\avr\\eeprom.h"